

Microchip MPLAB XC8 Assembler V2.41 build 20230208172133 
                                                                                               Thu Aug 17 14:26:22 2023

Microchip MPLAB XC8 C Compiler v2.41 (Free license) build 20230208172133 Og1 
     1                           	processor	18F4620
     2                           	fnconf	rparam,??,?,0
     3                           	pagewidth 120
     4                           	opt	flic
     5                           	psect	idataCOMRAM,global,class=CODE,delta=1,noexec
     6                           	psect	smallconst,global,reloc=2,class=SMALLCONST,delta=1,noexec
     7                           	psect	nvCOMRAM,global,class=COMRAM,space=1,delta=1,lowdata,noexec
     8                           	psect	cinit,global,reloc=2,class=CODE,delta=1
     9                           	psect	bssCOMRAM,global,class=COMRAM,space=1,delta=1,lowdata,noexec
    10                           	psect	dataCOMRAM,global,class=COMRAM,space=1,delta=1,lowdata,noexec
    11                           	psect	cstackCOMRAM,global,class=COMRAM,space=1,delta=1,lowdata,noexec
    12                           	psect	text0,global,reloc=2,class=CODE,delta=1
    13                           	psect	text1,global,reloc=2,class=CODE,delta=1,group=2
    14                           	psect	text2,global,reloc=2,class=CODE,delta=1,group=2
    15                           	psect	text3,global,reloc=2,class=CODE,delta=1
    16                           	psect	text4,global,reloc=2,class=CODE,delta=1
    17                           	psect	text5,global,reloc=2,class=CODE,delta=1
    18                           	psect	text6,global,reloc=2,class=CODE,delta=1
    19                           	psect	text7,global,reloc=2,class=CODE,delta=1
    20                           	psect	text8,global,reloc=2,class=CODE,delta=1
    21                           	psect	text9,global,reloc=2,class=CODE,delta=1
    22                           	psect	text10,global,reloc=2,class=CODE,delta=1
    23                           	psect	text11,global,reloc=2,class=CODE,delta=1
    24                           	psect	text12,global,reloc=2,class=CODE,delta=1
    25                           	psect	text13,global,reloc=2,class=CODE,delta=1
    26                           	psect	text14,global,reloc=2,class=CODE,delta=1
    27                           	psect	text15,global,reloc=2,class=CODE,delta=1
    28                           	psect	text16,global,reloc=2,class=CODE,delta=1,group=2
    29                           	psect	text17,global,reloc=2,class=CODE,delta=1,group=2
    30                           	psect	text18,global,reloc=2,class=CODE,delta=1,group=2
    31                           	psect	text19,global,reloc=2,class=CODE,delta=1,group=1
    32                           	psect	text20,global,reloc=2,class=CODE,delta=1
    33                           	psect	text21,global,reloc=2,class=CODE,delta=1
    34                           	psect	text22,global,reloc=2,class=CODE,delta=1
    35                           	psect	text23,global,reloc=2,class=CODE,delta=1
    36                           	psect	text24,global,reloc=2,class=CODE,delta=1
    37                           	psect	text25,global,reloc=2,class=CODE,delta=1
    38                           	psect	text26,global,reloc=2,class=CODE,delta=1
    39                           	psect	text27,global,reloc=2,class=CODE,delta=1
    40                           	psect	text28,global,reloc=2,class=CODE,delta=1
    41                           	psect	text29,global,reloc=2,class=CODE,delta=1
    42                           	psect	text30,global,reloc=2,class=CODE,delta=1
    43                           	psect	text31,global,reloc=2,class=CODE,delta=1
    44                           	psect	intsave_regs,global,class=BIGRAM,space=1,delta=1,noexec
    45                           	psect	rparam,global,class=COMRAM,space=1,delta=1,noexec
    46                           	psect	config,global,abs,ovrld,class=CONFIG,space=4,delta=1,noexec
    47   000000                     
    48                           ; Generated 23/03/2023 GMT
    49                           ; 
    50                           ; Copyright © 2023, Microchip Technology Inc. and its subsidiaries ("Microchip")
    51                           ; All rights reserved.
    52                           ; 
    53                           ; This software is developed by Microchip Technology Inc. and its subsidiaries ("Microch
      +                          ip").
    54                           ; 
    55                           ; Redistribution and use in source and binary forms, with or without modification, are
    56                           ; permitted provided that the following conditions are met:
    57                           ; 
    58                           ;     1. Redistributions of source code must retain the above copyright notice, this lis
      +                          t of
    59                           ;        conditions and the following disclaimer.
    60                           ; 
    61                           ;     2. Redistributions in binary form must reproduce the above copyright notice, this 
      +                          list
    62                           ;        of conditions and the following disclaimer in the documentation and/or other
    63                           ;        materials provided with the distribution. Publication is not required when
    64                           ;        this file is used in an embedded application.
    65                           ; 
    66                           ;     3. Microchip's name may not be used to endorse or promote products derived from th
      +                          is
    67                           ;        software without specific prior written permission.
    68                           ; 
    69                           ; THIS SOFTWARE IS PROVIDED BY MICROCHIP "AS IS" AND ANY EXPRESS OR IMPLIED WARRANTIES,
    70                           ; INCLUDING, BUT NOT LIMITED TO, THE IMPLIED WARRANTIES OF MERCHANTABILITY AND FITNESS F
      +                          OR
    71                           ; PURPOSE ARE DISCLAIMED.  IN NO EVENT SHALL MICROCHIP BE LIABLE FOR ANY DIRECT, INDIREC
      +                          T,
    72                           ; INCIDENTAL, SPECIAL, EXEMPLARY, OR CONSEQUENTIAL DAMAGES (INCLUDING BUT NOT LIMITED TO
    73                           ; PROCUREMENT OF SUBSTITUTE GOODS OR SERVICES; LOSS OF USE, DATA OR PROFITS; OR BUSINESS
    74                           ; INTERRUPTION) HOWSOEVER CAUSED AND ON ANY THEORY OF LIABILITY, WHETHER IN CONTRACT, ST
      +                          RICT
    75                           ; LIABILITY, OR TORT (INCLUDING NEGLIGENCE OR OTHERWISE) ARISING IN ANY WAY OUT OF THE U
      +                          SE OF
    76                           ; THIS SOFTWARE, EVEN IF ADVISED OF THE POSSIBILITY OF SUCH DAMAGE.
    77                           ; 
    78                           ; 
    79                           ; Code-generator required, PIC18F4620 Definitions
    80                           ; 
    81                           ; SFR Addresses
    82   000000                     
    83                           	psect	idataCOMRAM
    84   0025AC                     __pidataCOMRAM:
    85                           	callstack 0
    86                           
    87                           ;initializer for _lat_registers
    88   0025AC  89                 	db	137
    89   0025AD  0F                 	db	15
    90   0025AE  8A                 	db	138
    91   0025AF  0F                 	db	15
    92   0025B0  8B                 	db	139
    93   0025B1  0F                 	db	15
    94   0025B2  8C                 	db	140
    95   0025B3  0F                 	db	15
    96   0025B4  8D                 	db	141
    97   0025B5  0F                 	db	15
    98                           
    99                           ;initializer for _port_registers
   100   0025B6  80                 	db	128
   101   0025B7  0F                 	db	15
   102   0025B8  81                 	db	129
   103   0025B9  0F                 	db	15
   104   0025BA  82                 	db	130
   105   0025BB  0F                 	db	15
   106   0025BC  83                 	db	131
   107   0025BD  0F                 	db	15
   108   0025BE  84                 	db	132
   109   0025BF  0F                 	db	15
   110                           
   111                           ;initializer for _tris_registers
   112   0025C0  92                 	db	146
   113   0025C1  0F                 	db	15
   114   0025C2  93                 	db	147
   115   0025C3  0F                 	db	15
   116   0025C4  94                 	db	148
   117   0025C5  0F                 	db	15
   118   0025C6  95                 	db	149
   119   0025C7  0F                 	db	15
   120   0025C8  96                 	db	150
   121   0025C9  0F                 	db	15
   122                           
   123                           ;initializer for _password
   124   0025CA  3DDD               	dw	15837
   125                           
   126                           ;initializer for _kp1
   127   0025CC  02                 	db	2
   128   0025CD  0A                 	db	10
   129   0025CE  12                 	db	18
   130   0025CF  1A                 	db	26
   131   0025D0  62                 	db	98
   132   0025D1  6A                 	db	106
   133   0025D2  72                 	db	114
   134                           
   135                           ;initializer for _lcd_1
   136   0025D3  23                 	db	35
   137   0025D4  2B                 	db	43
   138   0025D5  33                 	db	51
   139   0025D6  3B                 	db	59
   140   0025D7  1B                 	db	27
   141   0025D8  13                 	db	19
   142                           
   143                           ;initializer for _motor_1
   144   0025D9  00                 	db	0
   145   0025DA  08                 	db	8
   146                           
   147                           ;initializer for _led_2
   148   0025DB  0B                 	db	11
   149                           
   150                           ;initializer for _led_1
   151   0025DC  03                 	db	3
   152                           
   153                           	psect	smallconst
   154   001000                     __psmallconst:
   155                           	callstack 0
   156   001000  00                 	db	0
   157   001001                     _btn_values:
   158                           	callstack 0
   159   001001  31                 	db	49
   160   001002  32                 	db	50
   161   001003  33                 	db	51
   162   001004  34                 	db	52
   163   001005  35                 	db	53
   164   001006  36                 	db	54
   165   001007  37                 	db	55
   166   001008  38                 	db	56
   167   001009  39                 	db	57
   168   00100A  2A                 	db	42
   169   00100B  30                 	db	48
   170   00100C  23                 	db	35
   171   00100D                     __end_of_btn_values:
   172                           	callstack 0
   173   00100D                     STR_10:
   174   00100D  57                 	db	87	;'W'
   175   00100E  72                 	db	114	;'r'
   176   00100F  6F                 	db	111	;'o'
   177   001010  6E                 	db	110	;'n'
   178   001011  67                 	db	103	;'g'
   179   001012  20                 	db	32
   180   001013  50                 	db	80	;'P'
   181   001014  61                 	db	97	;'a'
   182   001015  73                 	db	115	;'s'
   183   001016  73                 	db	115	;'s'
   184   001017  77                 	db	119	;'w'
   185   001018  6F                 	db	111	;'o'
   186   001019  72                 	db	114	;'r'
   187   00101A  64                 	db	100	;'d'
   188   00101B  20                 	db	32
   189   00101C  21                 	db	33
   190   00101D  00                 	db	0
   191   00101E                     STR_4:
   192   00101E  45                 	db	69	;'E'
   193   00101F  6E                 	db	110	;'n'
   194   001020  74                 	db	116	;'t'
   195   001021  65                 	db	101	;'e'
   196   001022  72                 	db	114	;'r'
   197   001023  20                 	db	32
   198   001024  50                 	db	80	;'P'
   199   001025  61                 	db	97	;'a'
   200   001026  73                 	db	115	;'s'
   201   001027  73                 	db	115	;'s'
   202   001028  77                 	db	119	;'w'
   203   001029  6F                 	db	111	;'o'
   204   00102A  72                 	db	114	;'r'
   205   00102B  64                 	db	100	;'d'
   206   00102C  20                 	db	32
   207   00102D  3A                 	db	58	;':'
   208   00102E  00                 	db	0
   209   00102F                     STR_7:
   210   00102F  32                 	db	50	;'2'
   211   001030  2D                 	db	45
   212   001031  43                 	db	67	;'C'
   213   001032  6C                 	db	108	;'l'
   214   001033  6F                 	db	111	;'o'
   215   001034  73                 	db	115	;'s'
   216   001035  65                 	db	101	;'e'
   217   001036  20                 	db	32
   218   001037  54                 	db	84	;'T'
   219   001038  68                 	db	104	;'h'
   220   001039  65                 	db	101	;'e'
   221   00103A  20                 	db	32
   222   00103B  4C                 	db	76	;'L'
   223   00103C  6F                 	db	111	;'o'
   224   00103D  63                 	db	99	;'c'
   225   00103E  6B                 	db	107	;'k'
   226   00103F  00                 	db	0
   227   001040                     STR_6:
   228   001040  31                 	db	49	;'1'
   229   001041  2D                 	db	45
   230   001042  4F                 	db	79	;'O'
   231   001043  70                 	db	112	;'p'
   232   001044  65                 	db	101	;'e'
   233   001045  6E                 	db	110	;'n'
   234   001046  20                 	db	32
   235   001047  54                 	db	84	;'T'
   236   001048  68                 	db	104	;'h'
   237   001049  65                 	db	101	;'e'
   238   00104A  20                 	db	32
   239   00104B  4C                 	db	76	;'L'
   240   00104C  6F                 	db	111	;'o'
   241   00104D  63                 	db	99	;'c'
   242   00104E  6B                 	db	107	;'k'
   243   00104F  00                 	db	0
   244   001050                     STR_14:
   245   001050  50                 	db	80	;'P'
   246   001051  6C                 	db	108	;'l'
   247   001052  65                 	db	101	;'e'
   248   001053  61                 	db	97	;'a'
   249   001054  73                 	db	115	;'s'
   250   001055  65                 	db	101	;'e'
   251   001056  20                 	db	32
   252   001057  57                 	db	87	;'W'
   253   001058  61                 	db	97	;'a'
   254   001059  69                 	db	105	;'i'
   255   00105A  74                 	db	116	;'t'
   256   00105B  00                 	db	0
   257   00105C                     STR_11:
   258   00105C  54                 	db	84	;'T'
   259   00105D  72                 	db	114	;'r'
   260   00105E  79                 	db	121	;'y'
   261   00105F  20                 	db	32
   262   001060  61                 	db	97	;'a'
   263   001061  67                 	db	103	;'g'
   264   001062  61                 	db	97	;'a'
   265   001063  69                 	db	105	;'i'
   266   001064  6E                 	db	110	;'n'
   267   001065  00                 	db	0
   268   001066                     STR_5:
   269   001066  57                 	db	87	;'W'
   270   001067  65                 	db	101	;'e'
   271   001068  6C                 	db	108	;'l'
   272   001069  63                 	db	99	;'c'
   273   00106A  6F                 	db	111	;'o'
   274   00106B  6D                 	db	109	;'m'
   275   00106C  65                 	db	101	;'e'
   276   00106D  00                 	db	0
   277   00106E                     STR_8:
   278   00106E  33                 	db	51	;'3'
   279   00106F  2D                 	db	45
   280   001070  45                 	db	69	;'E'
   281   001071  78                 	db	120	;'x'
   282   001072  69                 	db	105	;'i'
   283   001073  74                 	db	116	;'t'
   284   001074  00                 	db	0
   285   001075                     STR_1:
   286   001075  25                 	db	37
   287   001076  69                 	db	105	;'i'
   288   001077  00                 	db	0
   289   001078  00                 	db	0	; dummy byte at the end
   290   000000                     
   291                           	psect	nvCOMRAM
   292   000077                     __pnvCOMRAM:
   293                           	callstack 0
   294   000077                     _ret:
   295                           	callstack 0
   296   000077                     	ds	1
   297   000000                     _LATA	set	3977
   298   000000                     _PORTE	set	3972
   299   000000                     _PORTD	set	3971
   300   000000                     _PORTC	set	3970
   301   000000                     _PORTB	set	3969
   302   000000                     _PORTA	set	3968
   303   000000                     _TRISA	set	3986
   304   000000                     _TRISE	set	3990
   305   000000                     _TRISD	set	3989
   306   000000                     _TRISC	set	3988
   307   000000                     _TRISB	set	3987
   308   000000                     _LATE	set	3981
   309   000000                     _LATD	set	3980
   310   000000                     _LATC	set	3979
   311   000000                     _LATB	set	3978
   312                           
   313                           ; #config settings
   314                           
   315                           	psect	cinit
   316   002540                     __pcinit:
   317                           	callstack 0
   318   002540                     start_initialization:
   319                           	callstack 0
   320   002540                     __initialization:
   321                           	callstack 0
   322                           
   323                           ; Initialize objects allocated to COMRAM (49 bytes)
   324                           ; load TBLPTR registers with __pidataCOMRAM
   325   002540  0EAC               	movlw	low __pidataCOMRAM
   326   002542  6EF6               	movwf	tblptrl,c
   327   002544  0E25               	movlw	high __pidataCOMRAM
   328   002546  6EF7               	movwf	tblptrh,c
   329   002548  0E00               	movlw	low (__pidataCOMRAM shr (0+16))
   330   00254A  6EF8               	movwf	tblptru,c
   331   00254C  EE00  F001         	lfsr	0,__pdataCOMRAM
   332   002550  EE10 F031          	lfsr	1,49
   333   002554                     copy_data0:
   334   002554  0009               	tblrd		*+
   335   002556  CFF5 FFEE          	movff	tablat,postinc0
   336   00255A  50E5               	movf	postdec1,w,c
   337   00255C  50E1               	movf	fsr1l,w,c
   338   00255E  E1FA               	bnz	copy_data0
   339                           
   340                           ; Clear objects allocated to COMRAM (25 bytes)
   341   002560  EE00  F05E         	lfsr	0,__pbssCOMRAM
   342   002564  0E19               	movlw	25
   343   002566                     clear_0:
   344   002566  6AEE               	clrf	postinc0,c
   345   002568  06E8               	decf	wreg,f,c
   346   00256A  E1FD               	bnz	clear_0
   347   00256C                     end_of_initialization:
   348                           	callstack 0
   349   00256C                     __end_of__initialization:
   350                           	callstack 0
   351   00256C  0E00               	movlw	low (__Lmediumconst shr (0+16))
   352   00256E  6EF8               	movwf	tblptru,c
   353   002570  0100               	movlb	0
   354   002572  EF3D  F008         	goto	_main	;jump to C main() function
   355                           
   356                           	psect	bssCOMRAM
   357   00005E                     __pbssCOMRAM:
   358                           	callstack 0
   359   00005E                     _entered_password:
   360                           	callstack 0
   361   00005E                     	ds	2
   362   000060                     _l:
   363                           	callstack 0
   364   000060                     	ds	1
   365   000061                     _number_of_digits:
   366                           	callstack 0
   367   000061                     	ds	1
   368   000062                     _i:
   369                           	callstack 0
   370   000062                     	ds	1
   371   000063                     led_toggle@F3065:
   372                           	callstack 0
   373   000063                     	ds	1
   374   000064                     led_turn_off@F3060:
   375                           	callstack 0
   376   000064                     	ds	1
   377   000065                     led_turn_on@F3055:
   378                           	callstack 0
   379   000065                     	ds	1
   380   000066                     led_initialize@F3050:
   381                           	callstack 0
   382   000066                     	ds	1
   383   000067                     relay_toggle@F3061:
   384                           	callstack 0
   385   000067                     	ds	1
   386   000068                     relay_turn_off@F3056:
   387                           	callstack 0
   388   000068                     	ds	1
   389   000069                     relay_turn_on@F3051:
   390                           	callstack 0
   391   000069                     	ds	1
   392   00006A                     relay_initialize@F3046:
   393                           	callstack 0
   394   00006A                     	ds	1
   395   00006B                     _entered_password_arr:
   396                           	callstack 0
   397   00006B                     	ds	11
   398   000076                     _value:
   399                           	callstack 0
   400   000076                     	ds	1
   401                           
   402                           	psect	dataCOMRAM
   403   000001                     __pdataCOMRAM:
   404                           	callstack 0
   405   000001                     _lat_registers:
   406                           	callstack 0
   407   000001                     	ds	10
   408   00000B                     _port_registers:
   409                           	callstack 0
   410   00000B                     	ds	10
   411   000015                     _tris_registers:
   412                           	callstack 0
   413   000015                     	ds	10
   414   00001F                     _password:
   415                           	callstack 0
   416   00001F                     	ds	2
   417   000021                     _kp1:
   418                           	callstack 0
   419   000021                     	ds	7
   420   000028                     _lcd_1:
   421                           	callstack 0
   422   000028                     	ds	6
   423   00002E                     _motor_1:
   424                           	callstack 0
   425   00002E                     	ds	2
   426   000030                     _led_2:
   427                           	callstack 0
   428   000030                     	ds	1
   429   000031                     _led_1:
   430                           	callstack 0
   431   000031                     	ds	1
   432                           
   433                           	psect	cstackCOMRAM
   434   000032                     __pcstackCOMRAM:
   435                           	callstack 0
   436   000032                     ?_strlen:
   437                           	callstack 0
   438   000032                     ?_isspace:
   439                           	callstack 0
   440   000032                     ?_isdigit:
   441                           	callstack 0
   442   000032                     ?___wmul:
   443                           	callstack 0
   444   000032                     gpio_pin_direction_initialize@pin:
   445                           	callstack 0
   446   000032                     gpio_pin_read_logic@pin:
   447                           	callstack 0
   448   000032                     gpio_pin_write_logic@pin:
   449                           	callstack 0
   450   000032                     ___wmul@multiplier:
   451                           	callstack 0
   452   000032                     isdigit@c:
   453                           	callstack 0
   454   000032                     isspace@c:
   455                           	callstack 0
   456   000032                     memset@dest:
   457                           	callstack 0
   458   000032                     strlen@s:
   459                           	callstack 0
   460                           
   461                           ; 2 bytes @ 0x0
   462   000032                     	ds	2
   463   000034                     ??_gpio_pin_direction_initialize:
   464   000034                     ??_isspace:
   465   000034                     ??_isdigit:
   466   000034                     gpio_pin_write_logic@log:
   467                           	callstack 0
   468   000034                     gpio_pin_read_logic@log:
   469                           	callstack 0
   470   000034                     ___wmul@multiplicand:
   471                           	callstack 0
   472   000034                     memset@c:
   473                           	callstack 0
   474   000034                     strlen@a:
   475                           	callstack 0
   476                           
   477                           ; 2 bytes @ 0x2
   478   000034                     	ds	1
   479   000035                     ??_gpio_pin_write_logic:
   480                           
   481                           ; 1 bytes @ 0x3
   482   000035                     	ds	1
   483   000036                     ??_gpio_pin_read_logic:
   484   000036                     _isspace$1383:
   485                           	callstack 0
   486   000036                     ___wmul@product:
   487                           	callstack 0
   488   000036                     memset@n:
   489                           	callstack 0
   490                           
   491                           ; 2 bytes @ 0x4
   492   000036                     	ds	2
   493   000038                     ??_memset:
   494   000038                     ?_atoi:
   495                           	callstack 0
   496   000038                     atoi@s:
   497                           	callstack 0
   498                           
   499                           ; 2 bytes @ 0x6
   500   000038                     	ds	2
   501   00003A                     ??_atoi:
   502   00003A                     gpio_pin_direction_initialize@ret:
   503                           	callstack 0
   504   00003A                     memset@k:
   505                           	callstack 0
   506                           
   507                           ; 2 bytes @ 0x8
   508   00003A                     	ds	1
   509   00003B                     gpio_pin_read_logic@ret:
   510                           	callstack 0
   511   00003B                     gpio_pin_write_logic@ret:
   512                           	callstack 0
   513                           
   514                           ; 1 bytes @ 0x9
   515   00003B                     	ds	1
   516   00003C                     lcd_send_4bit@lcd_obj:
   517                           	callstack 0
   518   00003C                     lcd_4bit_send_enable@lcd_obj:
   519                           	callstack 0
   520   00003C                     dc_motor_move_right@dc_motor:
   521                           	callstack 0
   522   00003C                     dc_motor_move_left@dc_motor:
   523                           	callstack 0
   524   00003C                     dc_motor_stop@dc_motor:
   525                           	callstack 0
   526   00003C                     keypad_get_value@keypad:
   527                           	callstack 0
   528   00003C                     led_turn_on@led:
   529                           	callstack 0
   530   00003C                     led_turn_off@led:
   531                           	callstack 0
   532   00003C                     gpio_pin_initialize@pin:
   533                           	callstack 0
   534   00003C                     memset@s:
   535                           	callstack 0
   536                           
   537                           ; 2 bytes @ 0xA
   538   00003C                     	ds	1
   539   00003D                     atoi@neg:
   540                           	callstack 0
   541                           
   542                           ; 2 bytes @ 0xB
   543   00003D                     	ds	1
   544   00003E                     ??_gpio_pin_initialize:
   545   00003E                     ??_led_turn_on:
   546   00003E                     ??_led_turn_off:
   547   00003E                     lcd_send_4bit@data_command:
   548                           	callstack 0
   549   00003E                     lcd_4bit_send_enable@ret:
   550                           	callstack 0
   551   00003E                     dc_motor_move_right@ret:
   552                           	callstack 0
   553   00003E                     dc_motor_move_left@ret:
   554                           	callstack 0
   555   00003E                     dc_motor_stop@ret:
   556                           	callstack 0
   557   00003E                     keypad_get_value@value:
   558                           	callstack 0
   559                           
   560                           ; 2 bytes @ 0xC
   561   00003E                     	ds	1
   562   00003F                     ??_lcd_send_4bit:
   563   00003F                     led_turn_on@ret:
   564                           	callstack 0
   565   00003F                     led_turn_off@ret:
   566                           	callstack 0
   567   00003F                     gpio_pin_initialize@ret:
   568                           	callstack 0
   569   00003F                     atoi@n:
   570                           	callstack 0
   571                           
   572                           ; 2 bytes @ 0xD
   573   00003F                     	ds	1
   574   000040                     ??_keypad_get_value:
   575   000040                     led_turn_on@pin_obj:
   576                           	callstack 0
   577   000040                     led_turn_off@pin_obj:
   578                           	callstack 0
   579   000040                     dc_motor_initialize@dc_motor:
   580                           	callstack 0
   581   000040                     keypad_initialize@keypad:
   582                           	callstack 0
   583   000040                     led_initialize@led:
   584                           	callstack 0
   585                           
   586                           ; 2 bytes @ 0xE
   587   000040                     	ds	1
   588   000041                     lcd_send_4bit@ret:
   589                           	callstack 0
   590                           
   591                           ; 1 bytes @ 0xF
   592   000041                     	ds	1
   593   000042                     ??_keypad_initialize:
   594   000042                     ??_led_initialize:
   595   000042                     dc_motor_initialize@ret:
   596                           	callstack 0
   597   000042                     keypad_get_value@ret:
   598                           	callstack 0
   599   000042                     lcd_send_4bit@i:
   600                           	callstack 0
   601                           
   602                           ; 2 bytes @ 0x10
   603   000042                     	ds	1
   604   000043                     keypad_get_value@log:
   605                           	callstack 0
   606   000043                     led_initialize@ret:
   607                           	callstack 0
   608                           
   609                           ; 1 bytes @ 0x11
   610   000043                     	ds	1
   611   000044                     keypad_initialize@ret:
   612                           	callstack 0
   613   000044                     keypad_get_value@counter:
   614                           	callstack 0
   615   000044                     led_initialize@pin_obj:
   616                           	callstack 0
   617   000044                     lcd_4bit_send_command@lcd_obj:
   618                           	callstack 0
   619   000044                     lcd_4bit_send_char@lcd_obj:
   620                           	callstack 0
   621                           
   622                           ; 2 bytes @ 0x12
   623   000044                     	ds	1
   624   000045                     keypad_initialize@i:
   625                           	callstack 0
   626   000045                     keypad_get_value@row_counter:
   627                           	callstack 0
   628                           
   629                           ; 1 bytes @ 0x13
   630   000045                     	ds	1
   631   000046                     lcd_4bit_send_command@command:
   632                           	callstack 0
   633   000046                     lcd_4bit_send_char@chr:
   634                           	callstack 0
   635   000046                     keypad_initialize@i_479:
   636                           	callstack 0
   637   000046                     keypad_get_value@coulmn_counter:
   638                           	callstack 0
   639                           
   640                           ; 1 bytes @ 0x14
   641   000046                     	ds	1
   642   000047                     lcd_4bit_send_command@ret:
   643                           	callstack 0
   644   000047                     lcd_4bit_send_char@ret:
   645                           	callstack 0
   646                           
   647                           ; 1 bytes @ 0x15
   648   000047                     	ds	1
   649   000048                     lcd_4bit_initialize@lcd_obj:
   650                           	callstack 0
   651   000048                     lcd_4bit_send_string@lcd_obj:
   652                           	callstack 0
   653   000048                     lcd_4bit_set_cursor@lcd_obj:
   654                           	callstack 0
   655                           
   656                           ; 2 bytes @ 0x16
   657   000048                     	ds	2
   658   00004A                     ??_lcd_4bit_initialize:
   659   00004A                     lcd_4bit_set_cursor@row:
   660                           	callstack 0
   661   00004A                     lcd_4bit_send_string@string:
   662                           	callstack 0
   663                           
   664                           ; 2 bytes @ 0x18
   665   00004A                     	ds	1
   666   00004B                     lcd_4bit_set_cursor@column:
   667                           	callstack 0
   668   00004B                     lcd_4bit_initialize@i:
   669                           	callstack 0
   670                           
   671                           ; 2 bytes @ 0x19
   672   00004B                     	ds	1
   673   00004C                     ??_lcd_4bit_set_cursor:
   674   00004C                     lcd_4bit_send_string@ret:
   675                           	callstack 0
   676                           
   677                           ; 1 bytes @ 0x1A
   678   00004C                     	ds	1
   679   00004D                     lcd_4bit_initialize@ret:
   680                           	callstack 0
   681                           
   682                           ; 1 bytes @ 0x1B
   683   00004D                     	ds	1
   684   00004E                     lcd_4bit_set_cursor@ret:
   685                           	callstack 0
   686                           
   687                           ; 1 bytes @ 0x1C
   688   00004E                     	ds	1
   689   00004F                     lcd_4bit_send_char_pos@lcd_obj:
   690                           	callstack 0
   691   00004F                     lcd_4bit_send_string_pos@lcd_obj:
   692                           	callstack 0
   693                           
   694                           ; 2 bytes @ 0x1D
   695   00004F                     	ds	2
   696   000051                     lcd_4bit_send_char_pos@row:
   697                           	callstack 0
   698   000051                     lcd_4bit_send_string_pos@row:
   699                           	callstack 0
   700                           
   701                           ; 1 bytes @ 0x1F
   702   000051                     	ds	1
   703   000052                     lcd_4bit_send_char_pos@column:
   704                           	callstack 0
   705   000052                     lcd_4bit_send_string_pos@column:
   706                           	callstack 0
   707                           
   708                           ; 1 bytes @ 0x20
   709   000052                     	ds	1
   710   000053                     lcd_4bit_send_char_pos@chr:
   711                           	callstack 0
   712   000053                     lcd_4bit_send_string_pos@string:
   713                           	callstack 0
   714                           
   715                           ; 2 bytes @ 0x21
   716   000053                     	ds	1
   717   000054                     lcd_4bit_send_char_pos@ret:
   718                           	callstack 0
   719                           
   720                           ; 1 bytes @ 0x22
   721   000054                     	ds	1
   722   000055                     lcd_4bit_send_string_pos@ret:
   723                           	callstack 0
   724                           
   725                           ; 1 bytes @ 0x23
   726   000055                     	ds	1
   727   000056                     ??_loading:
   728                           
   729                           ; 1 bytes @ 0x24
   730   000056                     	ds	2
   731   000058                     loading@j:
   732                           	callstack 0
   733                           
   734                           ; 2 bytes @ 0x26
   735   000058                     	ds	2
   736   00005A                     loading@i:
   737                           	callstack 0
   738                           
   739                           ; 2 bytes @ 0x28
   740   00005A                     	ds	2
   741   00005C                     ??_main:
   742                           
   743                           ; 1 bytes @ 0x2A
   744   00005C                     	ds	2
   745                           
   746 ;;
   747 ;;Main: autosize = 0, tempsize = 2, incstack = 0, save=0
   748 ;;
   749 ;; *************** function _main *****************
   750 ;; Defined at:
   751 ;;		line 20 in file "application.c"
   752 ;; Parameters:    Size  Location     Type
   753 ;;		None
   754 ;; Auto vars:     Size  Location     Type
   755 ;;		None
   756 ;; Return value:  Size  Location     Type
   757 ;;                  2  551[None  ] int 
   758 ;; Registers used:
   759 ;;		wreg, fsr2l, fsr2h, status,2, status,0, tblptrl, tblptrh, tblptru, prodl, prodh, cstack
   760 ;; Tracked objects:
   761 ;;		On entry : 0/0
   762 ;;		On exit  : 0/0
   763 ;;		Unchanged: 0/0
   764 ;; Data sizes:     COMRAM   BANK0   BANK1   BANK2   BANK3   BANK4   BANK5   BANK6   BANK7   BANK8   BANK9  BANK10  BANK1
      +1  BANK12  BANK13  BANK14  BANK15
   765 ;;      Params:         0       0       0       0       0       0       0       0       0       0       0       0       
      +0       0       0       0       0
   766 ;;      Locals:         0       0       0       0       0       0       0       0       0       0       0       0       
      +0       0       0       0       0
   767 ;;      Temps:          2       0       0       0       0       0       0       0       0       0       0       0       
      +0       0       0       0       0
   768 ;;      Totals:         2       0       0       0       0       0       0       0       0       0       0       0       
      +0       0       0       0       0
   769 ;;Total ram usage:        2 bytes
   770 ;; Hardware stack levels required when called: 6
   771 ;; This function calls:
   772 ;;		_application_initialize
   773 ;;		_atoi
   774 ;;		_dc_motor_move_left
   775 ;;		_dc_motor_move_right
   776 ;;		_dc_motor_stop
   777 ;;		_keypad_get_value
   778 ;;		_lcd_4bit_send_char_pos
   779 ;;		_lcd_4bit_send_command
   780 ;;		_lcd_4bit_send_string_pos
   781 ;;		_led_turn_off
   782 ;;		_led_turn_on
   783 ;;		_loading
   784 ;;		_memset
   785 ;;		_strlen
   786 ;; This function is called by:
   787 ;;		Startup code after reset
   788 ;; This function uses a non-reentrant model
   789 ;;
   790                           
   791                           	psect	text0
   792   00107A                     __ptext0:
   793                           	callstack 0
   794   00107A                     _main:
   795                           	callstack 25
   796   00107A                     
   797                           ;application.c: 21:     application_initialize();
   798   00107A  EC18  F013         	call	_application_initialize	;wreg free
   799   00107E                     
   800                           ;application.c: 22:     ret = lcd_4bit_send_string_pos(&lcd_1,1,1,"Enter Password :");
   801   00107E  0E28               	movlw	low _lcd_1
   802   001080  6E4F               	movwf	lcd_4bit_send_string_pos@lcd_obj^0,c
   803   001082  0E00               	movlw	high _lcd_1
   804   001084  6E50               	movwf	(lcd_4bit_send_string_pos@lcd_obj+1)^0,c
   805   001086  0E01               	movlw	1
   806   001088  6E51               	movwf	lcd_4bit_send_string_pos@row^0,c
   807   00108A  0E01               	movlw	1
   808   00108C  6E52               	movwf	lcd_4bit_send_string_pos@column^0,c
   809   00108E  0E1E               	movlw	low STR_4
   810   001090  6E53               	movwf	lcd_4bit_send_string_pos@string^0,c
   811   001092  0E10               	movlw	high STR_4
   812   001094  6E54               	movwf	(lcd_4bit_send_string_pos@string+1)^0,c
   813   001096  EC5F  F011         	call	_lcd_4bit_send_string_pos	;wreg free
   814   00109A  6E77               	movwf	_ret^0,c
   815   00109C                     l3564:
   816                           
   817                           ;application.c: 25:     {;application.c: 26:         ret = keypad_get_value(&kp1,&value)
      +                          ;
   818   00109C  0E21               	movlw	low _kp1
   819   00109E  6E3C               	movwf	keypad_get_value@keypad^0,c
   820   0010A0  0E00               	movlw	high _kp1
   821   0010A2  6E3D               	movwf	(keypad_get_value@keypad+1)^0,c
   822   0010A4  0E76               	movlw	low _value
   823   0010A6  6E3E               	movwf	keypad_get_value@value^0,c
   824   0010A8  0E00               	movlw	high _value
   825   0010AA  6E3F               	movwf	(keypad_get_value@value+1)^0,c
   826   0010AC  EC92  F00D         	call	_keypad_get_value	;wreg free
   827   0010B0  6E77               	movwf	_ret^0,c
   828   0010B2                     
   829                           ;application.c: 27:         _delay((unsigned long)((200)*(4000000UL/4000.0)));
   830   0010B2  0E02               	movlw	2
   831   0010B4  6E5D               	movwf	(??_main+1)^0,c
   832   0010B6  0E04               	movlw	4
   833   0010B8  6E5C               	movwf	??_main^0,c
   834   0010BA  0EBA               	movlw	186
   835   0010BC                     u2587:
   836   0010BC  2EE8               	decfsz	wreg,f,c
   837   0010BE  D7FE               	bra	u2587
   838   0010C0  2E5C               	decfsz	??_main^0,f,c
   839   0010C2  D7FC               	bra	u2587
   840   0010C4  2E5D               	decfsz	(??_main+1)^0,f,c
   841   0010C6  D7FA               	bra	u2587
   842   0010C8  D000               	nop2	
   843   0010CA                     
   844                           ;application.c: 28:         if(6 == number_of_digits)
   845   0010CA  0E06               	movlw	6
   846   0010CC  1861               	xorwf	_number_of_digits^0,w,c
   847   0010CE  A4D8               	btfss	status,2,c
   848   0010D0  EF6C  F008         	goto	u2491
   849   0010D4  EF6E  F008         	goto	u2490
   850   0010D8                     u2491:
   851   0010D8  EFE5  F009         	goto	l3654
   852   0010DC                     u2490:
   853   0010DC                     
   854                           ;application.c: 29:         {;application.c: 30:             if(entered_password == pass
      +                          word)
   855   0010DC  0EDD               	movlw	221
   856   0010DE  185E               	xorwf	_entered_password^0,w,c
   857   0010E0  E107               	bnz	u2501
   858   0010E2  0E3D               	movlw	61
   859   0010E4  185F               	xorwf	(_entered_password+1)^0,w,c
   860   0010E6  A4D8               	btfss	status,2,c
   861   0010E8  EF78  F008         	goto	u2501
   862   0010EC  EF7A  F008         	goto	u2500
   863   0010F0                     u2501:
   864   0010F0  EF86  F009         	goto	l3634
   865   0010F4                     u2500:
   866   0010F4                     
   867                           ;application.c: 31:             {;application.c: 32:                 value=0;
   868   0010F4  0E00               	movlw	0
   869   0010F6  6E76               	movwf	_value^0,c
   870                           
   871                           ;application.c: 33:                 if(l==0)
   872   0010F8  5060               	movf	_l^0,w,c
   873   0010FA  A4D8               	btfss	status,2,c
   874   0010FC  EF82  F008         	goto	u2511
   875   001100  EF84  F008         	goto	u2510
   876   001104                     u2511:
   877   001104  EFB2  F008         	goto	l3584
   878   001108                     u2510:
   879   001108                     
   880                           ;application.c: 34:                 {;application.c: 35:                     ret = lcd_4
      +                          bit_send_command(&lcd_1,0x01);
   881   001108  0E28               	movlw	low _lcd_1
   882   00110A  6E44               	movwf	lcd_4bit_send_command@lcd_obj^0,c
   883   00110C  0E00               	movlw	high _lcd_1
   884   00110E  6E45               	movwf	(lcd_4bit_send_command@lcd_obj+1)^0,c
   885   001110  0E01               	movlw	1
   886   001112  6E46               	movwf	lcd_4bit_send_command@command^0,c
   887   001114  EC7B  F010         	call	_lcd_4bit_send_command	;wreg free
   888   001118  6E77               	movwf	_ret^0,c
   889   00111A                     
   890                           ;application.c: 36:                     ret = lcd_4bit_send_string_pos(&lcd_1,1,7,"Welco
      +                          me");
   891   00111A  0E28               	movlw	low _lcd_1
   892   00111C  6E4F               	movwf	lcd_4bit_send_string_pos@lcd_obj^0,c
   893   00111E  0E00               	movlw	high _lcd_1
   894   001120  6E50               	movwf	(lcd_4bit_send_string_pos@lcd_obj+1)^0,c
   895   001122  0E01               	movlw	1
   896   001124  6E51               	movwf	lcd_4bit_send_string_pos@row^0,c
   897   001126  0E07               	movlw	7
   898   001128  6E52               	movwf	lcd_4bit_send_string_pos@column^0,c
   899   00112A  0E66               	movlw	low STR_5
   900   00112C  6E53               	movwf	lcd_4bit_send_string_pos@string^0,c
   901   00112E  0E10               	movlw	high STR_5
   902   001130  6E54               	movwf	(lcd_4bit_send_string_pos@string+1)^0,c
   903   001132  EC5F  F011         	call	_lcd_4bit_send_string_pos	;wreg free
   904   001136  6E77               	movwf	_ret^0,c
   905   001138                     
   906                           ;application.c: 37:                     _delay((unsigned long)((1000)*(4000000UL/4000.0)
      +                          ));
   907   001138  0E06               	movlw	6
   908   00113A  6E5D               	movwf	(??_main+1)^0,c
   909   00113C  0E13               	movlw	19
   910   00113E  6E5C               	movwf	??_main^0,c
   911   001140  0EAE               	movlw	174
   912   001142                     u2597:
   913   001142  2EE8               	decfsz	wreg,f,c
   914   001144  D7FE               	bra	u2597
   915   001146  2E5C               	decfsz	??_main^0,f,c
   916   001148  D7FC               	bra	u2597
   917   00114A  2E5D               	decfsz	(??_main+1)^0,f,c
   918   00114C  D7FA               	bra	u2597
   919   00114E                     
   920                           ;application.c: 38:                     ret = lcd_4bit_send_command(&lcd_1,0x01);
   921   00114E  0E28               	movlw	low _lcd_1
   922   001150  6E44               	movwf	lcd_4bit_send_command@lcd_obj^0,c
   923   001152  0E00               	movlw	high _lcd_1
   924   001154  6E45               	movwf	(lcd_4bit_send_command@lcd_obj+1)^0,c
   925   001156  0E01               	movlw	1
   926   001158  6E46               	movwf	lcd_4bit_send_command@command^0,c
   927   00115A  EC7B  F010         	call	_lcd_4bit_send_command	;wreg free
   928   00115E  6E77               	movwf	_ret^0,c
   929   001160                     
   930                           ;application.c: 40:                     l=1;
   931   001160  0E01               	movlw	1
   932   001162  6E60               	movwf	_l^0,c
   933   001164                     l3584:
   934                           
   935                           ;application.c: 42:                 ret = lcd_4bit_send_string_pos(&lcd_1,1,1,"1-Open Th
      +                          e Lock");
   936   001164  0E28               	movlw	low _lcd_1
   937   001166  6E4F               	movwf	lcd_4bit_send_string_pos@lcd_obj^0,c
   938   001168  0E00               	movlw	high _lcd_1
   939   00116A  6E50               	movwf	(lcd_4bit_send_string_pos@lcd_obj+1)^0,c
   940   00116C  0E01               	movlw	1
   941   00116E  6E51               	movwf	lcd_4bit_send_string_pos@row^0,c
   942   001170  0E01               	movlw	1
   943   001172  6E52               	movwf	lcd_4bit_send_string_pos@column^0,c
   944   001174  0E40               	movlw	low STR_6
   945   001176  6E53               	movwf	lcd_4bit_send_string_pos@string^0,c
   946   001178  0E10               	movlw	high STR_6
   947   00117A  6E54               	movwf	(lcd_4bit_send_string_pos@string+1)^0,c
   948   00117C  EC5F  F011         	call	_lcd_4bit_send_string_pos	;wreg free
   949   001180  6E77               	movwf	_ret^0,c
   950   001182                     
   951                           ;application.c: 43:                 ret = lcd_4bit_send_string_pos(&lcd_1,2,1,"2-Close T
      +                          he Lock");
   952   001182  0E28               	movlw	low _lcd_1
   953   001184  6E4F               	movwf	lcd_4bit_send_string_pos@lcd_obj^0,c
   954   001186  0E00               	movlw	high _lcd_1
   955   001188  6E50               	movwf	(lcd_4bit_send_string_pos@lcd_obj+1)^0,c
   956   00118A  0E02               	movlw	2
   957   00118C  6E51               	movwf	lcd_4bit_send_string_pos@row^0,c
   958   00118E  0E01               	movlw	1
   959   001190  6E52               	movwf	lcd_4bit_send_string_pos@column^0,c
   960   001192  0E2F               	movlw	low STR_7
   961   001194  6E53               	movwf	lcd_4bit_send_string_pos@string^0,c
   962   001196  0E10               	movlw	high STR_7
   963   001198  6E54               	movwf	(lcd_4bit_send_string_pos@string+1)^0,c
   964   00119A  EC5F  F011         	call	_lcd_4bit_send_string_pos	;wreg free
   965   00119E  6E77               	movwf	_ret^0,c
   966   0011A0                     
   967                           ;application.c: 44:                 ret = lcd_4bit_send_string_pos(&lcd_1,3,1,"3-Exit");
   968   0011A0  0E28               	movlw	low _lcd_1
   969   0011A2  6E4F               	movwf	lcd_4bit_send_string_pos@lcd_obj^0,c
   970   0011A4  0E00               	movlw	high _lcd_1
   971   0011A6  6E50               	movwf	(lcd_4bit_send_string_pos@lcd_obj+1)^0,c
   972   0011A8  0E03               	movlw	3
   973   0011AA  6E51               	movwf	lcd_4bit_send_string_pos@row^0,c
   974   0011AC  0E01               	movlw	1
   975   0011AE  6E52               	movwf	lcd_4bit_send_string_pos@column^0,c
   976   0011B0  0E6E               	movlw	low STR_8
   977   0011B2  6E53               	movwf	lcd_4bit_send_string_pos@string^0,c
   978   0011B4  0E10               	movlw	high STR_8
   979   0011B6  6E54               	movwf	(lcd_4bit_send_string_pos@string+1)^0,c
   980   0011B8  EC5F  F011         	call	_lcd_4bit_send_string_pos	;wreg free
   981   0011BC  6E77               	movwf	_ret^0,c
   982   0011BE                     
   983                           ;application.c: 45:                 ret = keypad_get_value(&kp1,&value);
   984   0011BE  0E21               	movlw	low _kp1
   985   0011C0  6E3C               	movwf	keypad_get_value@keypad^0,c
   986   0011C2  0E00               	movlw	high _kp1
   987   0011C4  6E3D               	movwf	(keypad_get_value@keypad+1)^0,c
   988   0011C6  0E76               	movlw	low _value
   989   0011C8  6E3E               	movwf	keypad_get_value@value^0,c
   990   0011CA  0E00               	movlw	high _value
   991   0011CC  6E3F               	movwf	(keypad_get_value@value+1)^0,c
   992   0011CE  EC92  F00D         	call	_keypad_get_value	;wreg free
   993   0011D2  6E77               	movwf	_ret^0,c
   994   0011D4                     
   995                           ;application.c: 46:                 ret = lcd_4bit_send_char_pos(&lcd_1,4,1,value);
   996   0011D4  0E28               	movlw	low _lcd_1
   997   0011D6  6E4F               	movwf	lcd_4bit_send_char_pos@lcd_obj^0,c
   998   0011D8  0E00               	movlw	high _lcd_1
   999   0011DA  6E50               	movwf	(lcd_4bit_send_char_pos@lcd_obj+1)^0,c
  1000   0011DC  0E04               	movlw	4
  1001   0011DE  6E51               	movwf	lcd_4bit_send_char_pos@row^0,c
  1002   0011E0  0E01               	movlw	1
  1003   0011E2  6E52               	movwf	lcd_4bit_send_char_pos@column^0,c
  1004   0011E4  C076  F053         	movff	_value,lcd_4bit_send_char_pos@chr
  1005   0011E8  ECB3  F011         	call	_lcd_4bit_send_char_pos	;wreg free
  1006   0011EC  6E77               	movwf	_ret^0,c
  1007   0011EE                     
  1008                           ;application.c: 47:                 if(value == '1')
  1009   0011EE  0E31               	movlw	49
  1010   0011F0  1876               	xorwf	_value^0,w,c
  1011   0011F2  A4D8               	btfss	status,2,c
  1012   0011F4  EFFE  F008         	goto	u2521
  1013   0011F8  EF00  F009         	goto	u2520
  1014   0011FC                     u2521:
  1015   0011FC  EF30  F009         	goto	l3610
  1016   001200                     u2520:
  1017   001200                     
  1018                           ;application.c: 48:                 {;application.c: 49:                     ret = lcd_4
      +                          bit_send_command(&lcd_1,0x01);
  1019   001200  0E28               	movlw	low _lcd_1
  1020   001202  6E44               	movwf	lcd_4bit_send_command@lcd_obj^0,c
  1021   001204  0E00               	movlw	high _lcd_1
  1022   001206  6E45               	movwf	(lcd_4bit_send_command@lcd_obj+1)^0,c
  1023   001208  0E01               	movlw	1
  1024   00120A  6E46               	movwf	lcd_4bit_send_command@command^0,c
  1025   00120C  EC7B  F010         	call	_lcd_4bit_send_command	;wreg free
  1026   001210  6E77               	movwf	_ret^0,c
  1027   001212                     
  1028                           ;application.c: 50:                     _delay((unsigned long)((100)*(4000000UL/4000.0))
      +                          );
  1029   001212  0E82               	movlw	130
  1030   001214  6E5C               	movwf	??_main^0,c
  1031   001216  0EDE               	movlw	222
  1032   001218                     u2607:
  1033   001218  2EE8               	decfsz	wreg,f,c
  1034   00121A  D7FE               	bra	u2607
  1035   00121C  2E5C               	decfsz	??_main^0,f,c
  1036   00121E  D7FC               	bra	u2607
  1037   001220                     
  1038                           ;application.c: 51:                     ret = dc_motor_move_right(&motor_1);
  1039   001220  0E2E               	movlw	low _motor_1
  1040   001222  6E3C               	movwf	dc_motor_move_right@dc_motor^0,c
  1041   001224  0E00               	movlw	high _motor_1
  1042   001226  6E3D               	movwf	(dc_motor_move_right@dc_motor+1)^0,c
  1043   001228  ECF9  F011         	call	_dc_motor_move_right	;wreg free
  1044   00122C  6E77               	movwf	_ret^0,c
  1045   00122E                     
  1046                           ;application.c: 52:                     ret = led_turn_on(&led_1);
  1047   00122E  0E31               	movlw	low _led_1
  1048   001230  6E3C               	movwf	led_turn_on@led^0,c
  1049   001232  0E00               	movlw	high _led_1
  1050   001234  6E3D               	movwf	(led_turn_on@led+1)^0,c
  1051   001236  EC40  F00F         	call	_led_turn_on	;wreg free
  1052   00123A  6E77               	movwf	_ret^0,c
  1053   00123C                     
  1054                           ;application.c: 53:                     ret = led_turn_off(&led_2);
  1055   00123C  0E30               	movlw	low _led_2
  1056   00123E  6E3C               	movwf	led_turn_off@led^0,c
  1057   001240  0E00               	movlw	high _led_2
  1058   001242  6E3D               	movwf	(led_turn_off@led+1)^0,c
  1059   001244  EC82  F00F         	call	_led_turn_off	;wreg free
  1060   001248  6E77               	movwf	_ret^0,c
  1061   00124A                     l3606:
  1062                           
  1063                           ;application.c: 54:                     loading();
  1064   00124A  EC19  F00E         	call	_loading	;wreg free
  1065   00124E                     
  1066                           ;application.c: 55:                     ret = dc_motor_stop(&motor_1);
  1067   00124E  0E2E               	movlw	low _motor_1
  1068   001250  6E3C               	movwf	dc_motor_stop@dc_motor^0,c
  1069   001252  0E00               	movlw	high _motor_1
  1070   001254  6E3D               	movwf	(dc_motor_stop@dc_motor+1)^0,c
  1071   001256  ECD6  F011         	call	_dc_motor_stop	;wreg free
  1072   00125A  6E77               	movwf	_ret^0,c
  1073                           
  1074                           ;application.c: 56:                 }else if(value == '2')
  1075   00125C  EF4E  F008         	goto	l3564
  1076   001260                     l3610:
  1077   001260  0E32               	movlw	50
  1078   001262  1876               	xorwf	_value^0,w,c
  1079   001264  A4D8               	btfss	status,2,c
  1080   001266  EF37  F009         	goto	u2531
  1081   00126A  EF39  F009         	goto	u2530
  1082   00126E                     u2531:
  1083   00126E  EF60  F009         	goto	l3626
  1084   001272                     u2530:
  1085   001272                     
  1086                           ;application.c: 57:                 {;application.c: 58:                     ret = lcd_4
      +                          bit_send_command(&lcd_1,0x01);
  1087   001272  0E28               	movlw	low _lcd_1
  1088   001274  6E44               	movwf	lcd_4bit_send_command@lcd_obj^0,c
  1089   001276  0E00               	movlw	high _lcd_1
  1090   001278  6E45               	movwf	(lcd_4bit_send_command@lcd_obj+1)^0,c
  1091   00127A  0E01               	movlw	1
  1092   00127C  6E46               	movwf	lcd_4bit_send_command@command^0,c
  1093   00127E  EC7B  F010         	call	_lcd_4bit_send_command	;wreg free
  1094   001282  6E77               	movwf	_ret^0,c
  1095   001284                     
  1096                           ;application.c: 59:                     _delay((unsigned long)((100)*(4000000UL/4000.0))
      +                          );
  1097   001284  0E82               	movlw	130
  1098   001286  6E5C               	movwf	??_main^0,c
  1099   001288  0EDE               	movlw	222
  1100   00128A                     u2617:
  1101   00128A  2EE8               	decfsz	wreg,f,c
  1102   00128C  D7FE               	bra	u2617
  1103   00128E  2E5C               	decfsz	??_main^0,f,c
  1104   001290  D7FC               	bra	u2617
  1105   001292                     
  1106                           ;application.c: 60:                     ret = dc_motor_move_left(&motor_1);
  1107   001292  0E2E               	movlw	low _motor_1
  1108   001294  6E3C               	movwf	dc_motor_move_left@dc_motor^0,c
  1109   001296  0E00               	movlw	high _motor_1
  1110   001298  6E3D               	movwf	(dc_motor_move_left@dc_motor+1)^0,c
  1111   00129A  EC1C  F012         	call	_dc_motor_move_left	;wreg free
  1112   00129E  6E77               	movwf	_ret^0,c
  1113   0012A0                     
  1114                           ;application.c: 61:                     ret = led_turn_on(&led_2);
  1115   0012A0  0E30               	movlw	low _led_2
  1116   0012A2  6E3C               	movwf	led_turn_on@led^0,c
  1117   0012A4  0E00               	movlw	high _led_2
  1118   0012A6  6E3D               	movwf	(led_turn_on@led+1)^0,c
  1119   0012A8  EC40  F00F         	call	_led_turn_on	;wreg free
  1120   0012AC  6E77               	movwf	_ret^0,c
  1121   0012AE                     
  1122                           ;application.c: 62:                     ret = led_turn_off(&led_1);
  1123   0012AE  0E31               	movlw	low _led_1
  1124   0012B0  6E3C               	movwf	led_turn_off@led^0,c
  1125   0012B2  0E00               	movlw	high _led_1
  1126   0012B4  6E3D               	movwf	(led_turn_off@led+1)^0,c
  1127   0012B6  EC82  F00F         	call	_led_turn_off	;wreg free
  1128   0012BA  6E77               	movwf	_ret^0,c
  1129   0012BC  EF25  F009         	goto	l3606
  1130   0012C0                     l3626:
  1131   0012C0  0E33               	movlw	51
  1132   0012C2  1876               	xorwf	_value^0,w,c
  1133   0012C4  A4D8               	btfss	status,2,c
  1134   0012C6  EF67  F009         	goto	u2541
  1135   0012CA  EF69  F009         	goto	u2540
  1136   0012CE                     u2541:
  1137   0012CE  EFE3  F009         	goto	l561
  1138   0012D2                     u2540:
  1139   0012D2                     
  1140                           ;application.c: 66:                 {;application.c: 67:                     entered_pas
      +                          sword=0;
  1141   0012D2  0E00               	movlw	0
  1142   0012D4  6E5F               	movwf	(_entered_password+1)^0,c
  1143   0012D6  0E00               	movlw	0
  1144   0012D8  6E5E               	movwf	_entered_password^0,c
  1145                           
  1146                           ;application.c: 68:                     number_of_digits=0;
  1147   0012DA  0E00               	movlw	0
  1148   0012DC  6E61               	movwf	_number_of_digits^0,c
  1149                           
  1150                           ;application.c: 69:                     l=0;
  1151   0012DE  0E00               	movlw	0
  1152   0012E0  6E60               	movwf	_l^0,c
  1153                           
  1154                           ;application.c: 70:                     value=0;
  1155   0012E2  0E00               	movlw	0
  1156   0012E4  6E76               	movwf	_value^0,c
  1157   0012E6                     
  1158                           ;application.c: 71:                     loading();
  1159   0012E6  EC19  F00E         	call	_loading	;wreg free
  1160   0012EA                     
  1161                           ;application.c: 72:                     ret = lcd_4bit_send_string_pos(&lcd_1,1,1,"Enter
      +                           Password :");
  1162   0012EA  0E28               	movlw	low _lcd_1
  1163   0012EC  6E4F               	movwf	lcd_4bit_send_string_pos@lcd_obj^0,c
  1164   0012EE  0E00               	movlw	high _lcd_1
  1165   0012F0  6E50               	movwf	(lcd_4bit_send_string_pos@lcd_obj+1)^0,c
  1166   0012F2  0E01               	movlw	1
  1167   0012F4  6E51               	movwf	lcd_4bit_send_string_pos@row^0,c
  1168   0012F6  0E01               	movlw	1
  1169   0012F8  6E52               	movwf	lcd_4bit_send_string_pos@column^0,c
  1170   0012FA  0E1E               	movlw	low STR_4
  1171   0012FC  6E53               	movwf	lcd_4bit_send_string_pos@string^0,c
  1172   0012FE  0E10               	movlw	high STR_4
  1173   001300  6E54               	movwf	(lcd_4bit_send_string_pos@string+1)^0,c
  1174   001302  EC5F  F011         	call	_lcd_4bit_send_string_pos	;wreg free
  1175   001306  6E77               	movwf	_ret^0,c
  1176   001308  EF4E  F008         	goto	l3564
  1177   00130C                     l3634:
  1178                           
  1179                           ;application.c: 77:             {;application.c: 78:                 ret = lcd_4bit_send
      +                          _command(&lcd_1,0x01);
  1180   00130C  0E28               	movlw	low _lcd_1
  1181   00130E  6E44               	movwf	lcd_4bit_send_command@lcd_obj^0,c
  1182   001310  0E00               	movlw	high _lcd_1
  1183   001312  6E45               	movwf	(lcd_4bit_send_command@lcd_obj+1)^0,c
  1184   001314  0E01               	movlw	1
  1185   001316  6E46               	movwf	lcd_4bit_send_command@command^0,c
  1186   001318  EC7B  F010         	call	_lcd_4bit_send_command	;wreg free
  1187   00131C  6E77               	movwf	_ret^0,c
  1188   00131E                     
  1189                           ;application.c: 79:                 ret = lcd_4bit_send_string_pos(&lcd_1,1,1,"Wrong Pas
      +                          sword !");
  1190   00131E  0E28               	movlw	low _lcd_1
  1191   001320  6E4F               	movwf	lcd_4bit_send_string_pos@lcd_obj^0,c
  1192   001322  0E00               	movlw	high _lcd_1
  1193   001324  6E50               	movwf	(lcd_4bit_send_string_pos@lcd_obj+1)^0,c
  1194   001326  0E01               	movlw	1
  1195   001328  6E51               	movwf	lcd_4bit_send_string_pos@row^0,c
  1196   00132A  0E01               	movlw	1
  1197   00132C  6E52               	movwf	lcd_4bit_send_string_pos@column^0,c
  1198   00132E  0E0D               	movlw	low STR_10
  1199   001330  6E53               	movwf	lcd_4bit_send_string_pos@string^0,c
  1200   001332  0E10               	movlw	high STR_10
  1201   001334  6E54               	movwf	(lcd_4bit_send_string_pos@string+1)^0,c
  1202   001336  EC5F  F011         	call	_lcd_4bit_send_string_pos	;wreg free
  1203   00133A  6E77               	movwf	_ret^0,c
  1204   00133C                     
  1205                           ;application.c: 80:                 ret = lcd_4bit_send_string_pos(&lcd_1,2,1,"Try again
      +                          ");
  1206   00133C  0E28               	movlw	low _lcd_1
  1207   00133E  6E4F               	movwf	lcd_4bit_send_string_pos@lcd_obj^0,c
  1208   001340  0E00               	movlw	high _lcd_1
  1209   001342  6E50               	movwf	(lcd_4bit_send_string_pos@lcd_obj+1)^0,c
  1210   001344  0E02               	movlw	2
  1211   001346  6E51               	movwf	lcd_4bit_send_string_pos@row^0,c
  1212   001348  0E01               	movlw	1
  1213   00134A  6E52               	movwf	lcd_4bit_send_string_pos@column^0,c
  1214   00134C  0E5C               	movlw	low STR_11
  1215   00134E  6E53               	movwf	lcd_4bit_send_string_pos@string^0,c
  1216   001350  0E10               	movlw	high STR_11
  1217   001352  6E54               	movwf	(lcd_4bit_send_string_pos@string+1)^0,c
  1218   001354  EC5F  F011         	call	_lcd_4bit_send_string_pos	;wreg free
  1219   001358  6E77               	movwf	_ret^0,c
  1220   00135A                     
  1221                           ;application.c: 81:                 entered_password=0;
  1222   00135A  0E00               	movlw	0
  1223   00135C  6E5F               	movwf	(_entered_password+1)^0,c
  1224   00135E  0E00               	movlw	0
  1225   001360  6E5E               	movwf	_entered_password^0,c
  1226   001362                     
  1227                           ;application.c: 82:                 number_of_digits=0;
  1228   001362  0E00               	movlw	0
  1229   001364  6E61               	movwf	_number_of_digits^0,c
  1230   001366                     
  1231                           ;application.c: 83:                 l=0;
  1232   001366  0E00               	movlw	0
  1233   001368  6E60               	movwf	_l^0,c
  1234   00136A                     
  1235                           ;application.c: 84:                 value=0;
  1236   00136A  0E00               	movlw	0
  1237   00136C  6E76               	movwf	_value^0,c
  1238   00136E                     
  1239                           ;application.c: 85:                  _delay((unsigned long)((900)*(4000000UL/4000.0)));
  1240   00136E  0E05               	movlw	5
  1241   001370  6E5D               	movwf	(??_main+1)^0,c
  1242   001372  0E91               	movlw	145
  1243   001374  6E5C               	movwf	??_main^0,c
  1244   001376  0ED0               	movlw	208
  1245   001378                     u2627:
  1246   001378  2EE8               	decfsz	wreg,f,c
  1247   00137A  D7FE               	bra	u2627
  1248   00137C  2E5C               	decfsz	??_main^0,f,c
  1249   00137E  D7FC               	bra	u2627
  1250   001380  2E5D               	decfsz	(??_main+1)^0,f,c
  1251   001382  D7FA               	bra	u2627
  1252   001384                     
  1253                           ;application.c: 86:                 ret = lcd_4bit_send_command(&lcd_1,0x01);
  1254   001384  0E28               	movlw	low _lcd_1
  1255   001386  6E44               	movwf	lcd_4bit_send_command@lcd_obj^0,c
  1256   001388  0E00               	movlw	high _lcd_1
  1257   00138A  6E45               	movwf	(lcd_4bit_send_command@lcd_obj+1)^0,c
  1258   00138C  0E01               	movlw	1
  1259   00138E  6E46               	movwf	lcd_4bit_send_command@command^0,c
  1260   001390  EC7B  F010         	call	_lcd_4bit_send_command	;wreg free
  1261   001394  6E77               	movwf	_ret^0,c
  1262                           
  1263                           ;application.c: 87:                 _delay((unsigned long)((100)*(4000000UL/4000.0)));
  1264   001396  0E82               	movlw	130
  1265   001398  6E5C               	movwf	??_main^0,c
  1266   00139A  0EDE               	movlw	222
  1267   00139C                     u2637:
  1268   00139C  2EE8               	decfsz	wreg,f,c
  1269   00139E  D7FE               	bra	u2637
  1270   0013A0  2E5C               	decfsz	??_main^0,f,c
  1271   0013A2  D7FC               	bra	u2637
  1272   0013A4                     
  1273                           ;application.c: 88:                 ret = lcd_4bit_send_string_pos(&lcd_1,1,1,"Enter Pas
      +                          sword :");
  1274   0013A4  0E28               	movlw	low _lcd_1
  1275   0013A6  6E4F               	movwf	lcd_4bit_send_string_pos@lcd_obj^0,c
  1276   0013A8  0E00               	movlw	high _lcd_1
  1277   0013AA  6E50               	movwf	(lcd_4bit_send_string_pos@lcd_obj+1)^0,c
  1278   0013AC  0E01               	movlw	1
  1279   0013AE  6E51               	movwf	lcd_4bit_send_string_pos@row^0,c
  1280   0013B0  0E01               	movlw	1
  1281   0013B2  6E52               	movwf	lcd_4bit_send_string_pos@column^0,c
  1282   0013B4  0E1E               	movlw	low STR_4
  1283   0013B6  6E53               	movwf	lcd_4bit_send_string_pos@string^0,c
  1284   0013B8  0E10               	movlw	high STR_4
  1285   0013BA  6E54               	movwf	(lcd_4bit_send_string_pos@string+1)^0,c
  1286   0013BC  EC5F  F011         	call	_lcd_4bit_send_string_pos	;wreg free
  1287   0013C0  6E77               	movwf	_ret^0,c
  1288   0013C2  EF4E  F008         	goto	l3564
  1289   0013C6                     l561:
  1290                           
  1291                           ;application.c: 91:         }
  1292   0013C6  EF4E  F008         	goto	l3564
  1293   0013CA                     l3654:
  1294                           
  1295                           ;application.c: 93:         {;application.c: 94:             if(strlen(entered_password_
      +                          arr)==6)
  1296   0013CA  0E6B               	movlw	low _entered_password_arr
  1297   0013CC  6E32               	movwf	strlen@s^0,c
  1298   0013CE  0E00               	movlw	high _entered_password_arr
  1299   0013D0  6E33               	movwf	(strlen@s+1)^0,c
  1300   0013D2  ECBB  F012         	call	_strlen	;wreg free
  1301   0013D6  0E06               	movlw	6
  1302   0013D8  1832               	xorwf	?_strlen^0,w,c
  1303   0013DA  1033               	iorwf	(?_strlen+1)^0,w,c
  1304   0013DC  A4D8               	btfss	status,2,c
  1305   0013DE  EFF3  F009         	goto	u2551
  1306   0013E2  EFF5  F009         	goto	u2550
  1307   0013E6                     u2551:
  1308   0013E6  EF13  F00A         	goto	l3664
  1309   0013EA                     u2550:
  1310   0013EA                     
  1311                           ;application.c: 95:             {;application.c: 96:                 entered_password = 
      +                          atoi(entered_password_arr);
  1312   0013EA  0E6B               	movlw	low _entered_password_arr
  1313   0013EC  6E38               	movwf	atoi@s^0,c
  1314   0013EE  0E00               	movlw	high _entered_password_arr
  1315   0013F0  6E39               	movwf	(atoi@s+1)^0,c
  1316   0013F2  EC1F  F00B         	call	_atoi	;wreg free
  1317   0013F6  C038  F05E         	movff	?_atoi,_entered_password
  1318   0013FA  C039  F05F         	movff	?_atoi+1,_entered_password+1
  1319   0013FE                     
  1320                           ;application.c: 97:                 number_of_digits = 6;
  1321   0013FE  0E06               	movlw	6
  1322   001400  6E61               	movwf	_number_of_digits^0,c
  1323   001402                     l3660:
  1324                           
  1325                           ;application.c: 98:                 memset(entered_password_arr,'\0',11);
  1326   001402  0E6B               	movlw	low _entered_password_arr
  1327   001404  6E32               	movwf	memset@dest^0,c
  1328   001406  0E00               	movlw	high _entered_password_arr
  1329   001408  6E33               	movwf	(memset@dest+1)^0,c
  1330   00140A  0E00               	movlw	0
  1331   00140C  6E35               	movwf	(memset@c+1)^0,c
  1332   00140E  0E00               	movlw	0
  1333   001410  6E34               	movwf	memset@c^0,c
  1334   001412  0E00               	movlw	0
  1335   001414  6E37               	movwf	(memset@n+1)^0,c
  1336   001416  0E0B               	movlw	11
  1337   001418  6E36               	movwf	memset@n^0,c
  1338   00141A  EC64  F00A         	call	_memset	;wreg free
  1339   00141E                     
  1340                           ;application.c: 99:                 i=0;
  1341   00141E  0E00               	movlw	0
  1342   001420  6E62               	movwf	_i^0,c
  1343                           
  1344                           ;application.c: 100:             }
  1345   001422  EF4E  F008         	goto	l3564
  1346   001426                     l3664:
  1347   001426  0E23               	movlw	35
  1348   001428  1876               	xorwf	_value^0,w,c
  1349   00142A  A4D8               	btfss	status,2,c
  1350   00142C  EF1A  F00A         	goto	u2561
  1351   001430  EF1C  F00A         	goto	u2560
  1352   001434                     u2561:
  1353   001434  EF40  F00A         	goto	l3682
  1354   001438                     u2560:
  1355   001438                     
  1356                           ;application.c: 102:             {;application.c: 103:                 ret = lcd_4bit_se
      +                          nd_command(&lcd_1,0x01);
  1357   001438  0E28               	movlw	low _lcd_1
  1358   00143A  6E44               	movwf	lcd_4bit_send_command@lcd_obj^0,c
  1359   00143C  0E00               	movlw	high _lcd_1
  1360   00143E  6E45               	movwf	(lcd_4bit_send_command@lcd_obj+1)^0,c
  1361   001440  0E01               	movlw	1
  1362   001442  6E46               	movwf	lcd_4bit_send_command@command^0,c
  1363   001444  EC7B  F010         	call	_lcd_4bit_send_command	;wreg free
  1364   001448  6E77               	movwf	_ret^0,c
  1365   00144A                     
  1366                           ;application.c: 104:                 ret = lcd_4bit_send_string_pos(&lcd_1,1,1,"Enter Pa
      +                          ssword :");
  1367   00144A  0E28               	movlw	low _lcd_1
  1368   00144C  6E4F               	movwf	lcd_4bit_send_string_pos@lcd_obj^0,c
  1369   00144E  0E00               	movlw	high _lcd_1
  1370   001450  6E50               	movwf	(lcd_4bit_send_string_pos@lcd_obj+1)^0,c
  1371   001452  0E01               	movlw	1
  1372   001454  6E51               	movwf	lcd_4bit_send_string_pos@row^0,c
  1373   001456  0E01               	movlw	1
  1374   001458  6E52               	movwf	lcd_4bit_send_string_pos@column^0,c
  1375   00145A  0E1E               	movlw	low STR_4
  1376   00145C  6E53               	movwf	lcd_4bit_send_string_pos@string^0,c
  1377   00145E  0E10               	movlw	high STR_4
  1378   001460  6E54               	movwf	(lcd_4bit_send_string_pos@string+1)^0,c
  1379   001462  EC5F  F011         	call	_lcd_4bit_send_string_pos	;wreg free
  1380   001466  6E77               	movwf	_ret^0,c
  1381   001468                     
  1382                           ;application.c: 105:                 entered_password=0;
  1383   001468  0E00               	movlw	0
  1384   00146A  6E5F               	movwf	(_entered_password+1)^0,c
  1385   00146C  0E00               	movlw	0
  1386   00146E  6E5E               	movwf	_entered_password^0,c
  1387   001470                     
  1388                           ;application.c: 106:                 number_of_digits=0;
  1389   001470  0E00               	movlw	0
  1390   001472  6E61               	movwf	_number_of_digits^0,c
  1391   001474                     
  1392                           ;application.c: 107:                 l=0;
  1393   001474  0E00               	movlw	0
  1394   001476  6E60               	movwf	_l^0,c
  1395   001478                     
  1396                           ;application.c: 108:                 value=0;
  1397   001478  0E00               	movlw	0
  1398   00147A  6E76               	movwf	_value^0,c
  1399   00147C  EF01  F00A         	goto	l3660
  1400   001480                     l3682:
  1401   001480  5076               	movf	_value^0,w,c
  1402   001482  B4D8               	btfsc	status,2,c
  1403   001484  EF46  F00A         	goto	u2571
  1404   001488  EF48  F00A         	goto	u2570
  1405   00148C                     u2571:
  1406   00148C  EF4E  F008         	goto	l3564
  1407   001490                     u2570:
  1408   001490                     
  1409                           ;application.c: 113:             {;application.c: 114:                 entered_password_
      +                          arr[i] = value;
  1410   001490  0E6B               	movlw	low _entered_password_arr
  1411   001492  2462               	addwf	_i^0,w,c
  1412   001494  6ED9               	movwf	fsr2l,c
  1413   001496  6ADA               	clrf	fsr2h,c
  1414   001498  0E00               	movlw	high _entered_password_arr
  1415   00149A  22DA               	addwfc	fsr2h,f,c
  1416   00149C  C076  FFDF         	movff	_value,indf2
  1417   0014A0                     
  1418                           ;application.c: 115:                 ret = lcd_4bit_send_char_pos(&lcd_1,2,(i+1),'*');
  1419   0014A0  0E28               	movlw	low _lcd_1
  1420   0014A2  6E4F               	movwf	lcd_4bit_send_char_pos@lcd_obj^0,c
  1421   0014A4  0E00               	movlw	high _lcd_1
  1422   0014A6  6E50               	movwf	(lcd_4bit_send_char_pos@lcd_obj+1)^0,c
  1423   0014A8  0E02               	movlw	2
  1424   0014AA  6E51               	movwf	lcd_4bit_send_char_pos@row^0,c
  1425   0014AC  2862               	incf	_i^0,w,c
  1426   0014AE  6E52               	movwf	lcd_4bit_send_char_pos@column^0,c
  1427   0014B0  0E2A               	movlw	42
  1428   0014B2  6E53               	movwf	lcd_4bit_send_char_pos@chr^0,c
  1429   0014B4  ECB3  F011         	call	_lcd_4bit_send_char_pos	;wreg free
  1430   0014B8  6E77               	movwf	_ret^0,c
  1431   0014BA                     
  1432                           ;application.c: 116:                 value=0;
  1433   0014BA  0E00               	movlw	0
  1434   0014BC  6E76               	movwf	_value^0,c
  1435   0014BE                     
  1436                           ;application.c: 117:                 i++;
  1437   0014BE  2A62               	incf	_i^0,f,c
  1438   0014C0  EF4E  F008         	goto	l3564
  1439   0014C4  EF00  F000         	goto	start
  1440   0014C8                     __end_of_main:
  1441                           	callstack 0
  1442                           
  1443 ;; *************** function _strlen *****************
  1444 ;; Defined at:
  1445 ;;		line 5 in file "C:\Program Files\Microchip\xc8\v2.41\pic\sources\c99\common\strlen.c"
  1446 ;; Parameters:    Size  Location     Type
  1447 ;;  s               2    0[COMRAM] PTR const unsigned char 
  1448 ;;		 -> entered_password_arr(11), 
  1449 ;; Auto vars:     Size  Location     Type
  1450 ;;  a               2    2[COMRAM] PTR const unsigned char 
  1451 ;;		 -> entered_password_arr(11), 
  1452 ;; Return value:  Size  Location     Type
  1453 ;;                  2    0[COMRAM] unsigned int 
  1454 ;; Registers used:
  1455 ;;		wreg, fsr2l, fsr2h, status,2, status,0
  1456 ;; Tracked objects:
  1457 ;;		On entry : 0/0
  1458 ;;		On exit  : 0/0
  1459 ;;		Unchanged: 0/0
  1460 ;; Data sizes:     COMRAM   BANK0   BANK1   BANK2   BANK3   BANK4   BANK5   BANK6   BANK7   BANK8   BANK9  BANK10  BANK1
      +1  BANK12  BANK13  BANK14  BANK15
  1461 ;;      Params:         2       0       0       0       0       0       0       0       0       0       0       0       
      +0       0       0       0       0
  1462 ;;      Locals:         2       0       0       0       0       0       0       0       0       0       0       0       
      +0       0       0       0       0
  1463 ;;      Temps:          0       0       0       0       0       0       0       0       0       0       0       0       
      +0       0       0       0       0
  1464 ;;      Totals:         4       0       0       0       0       0       0       0       0       0       0       0       
      +0       0       0       0       0
  1465 ;;Total ram usage:        4 bytes
  1466 ;; Hardware stack levels used: 1
  1467 ;; This function calls:
  1468 ;;		Nothing
  1469 ;; This function is called by:
  1470 ;;		_main
  1471 ;; This function uses a non-reentrant model
  1472 ;;
  1473                           
  1474                           	psect	text1
  1475   002576                     __ptext1:
  1476                           	callstack 0
  1477   002576                     _strlen:
  1478                           	callstack 30
  1479   002576  C032  F034         	movff	strlen@s,strlen@a
  1480   00257A  C033  F035         	movff	strlen@s+1,strlen@a+1
  1481   00257E  EFC3  F012         	goto	l3220
  1482   002582                     l3218:
  1483   002582  4A32               	infsnz	strlen@s^0,f,c
  1484   002584  2A33               	incf	(strlen@s+1)^0,f,c
  1485   002586                     l3220:
  1486   002586  C032  FFD9         	movff	strlen@s,fsr2l
  1487   00258A  C033  FFDA         	movff	strlen@s+1,fsr2h
  1488   00258E  50DF               	movf	indf2,w,c
  1489   002590  A4D8               	btfss	status,2,c
  1490   002592  EFCD  F012         	goto	u2111
  1491   002596  EFCF  F012         	goto	u2110
  1492   00259A                     u2111:
  1493   00259A  EFC1  F012         	goto	l3218
  1494   00259E                     u2110:
  1495   00259E  5034               	movf	strlen@a^0,w,c
  1496   0025A0  5C32               	subwf	strlen@s^0,w,c
  1497   0025A2  6E32               	movwf	?_strlen^0,c
  1498   0025A4  5035               	movf	(strlen@a+1)^0,w,c
  1499   0025A6  5833               	subwfb	(strlen@s+1)^0,w,c
  1500   0025A8  6E33               	movwf	(?_strlen+1)^0,c
  1501   0025AA  0012               	return		;funcret
  1502   0025AC                     __end_of_strlen:
  1503                           	callstack 0
  1504                           
  1505 ;; *************** function _memset *****************
  1506 ;; Defined at:
  1507 ;;		line 4 in file "C:\Program Files\Microchip\xc8\v2.41\pic\sources\c99\common\memset.c"
  1508 ;; Parameters:    Size  Location     Type
  1509 ;;  dest            2    0[COMRAM] PTR void 
  1510 ;;		 -> entered_password_arr(11), 
  1511 ;;  c               2    2[COMRAM] int 
  1512 ;;  n               2    4[COMRAM] unsigned int 
  1513 ;; Auto vars:     Size  Location     Type
  1514 ;;  s               2   10[COMRAM] PTR unsigned char 
  1515 ;;		 -> entered_password_arr(11), 
  1516 ;;  k               2    8[COMRAM] unsigned int 
  1517 ;; Return value:  Size  Location     Type
  1518 ;;                  2    0[COMRAM] PTR void 
  1519 ;; Registers used:
  1520 ;;		wreg, fsr2l, fsr2h, status,2, status,0
  1521 ;; Tracked objects:
  1522 ;;		On entry : 0/0
  1523 ;;		On exit  : 0/0
  1524 ;;		Unchanged: 0/0
  1525 ;; Data sizes:     COMRAM   BANK0   BANK1   BANK2   BANK3   BANK4   BANK5   BANK6   BANK7   BANK8   BANK9  BANK10  BANK1
      +1  BANK12  BANK13  BANK14  BANK15
  1526 ;;      Params:         6       0       0       0       0       0       0       0       0       0       0       0       
      +0       0       0       0       0
  1527 ;;      Locals:         4       0       0       0       0       0       0       0       0       0       0       0       
      +0       0       0       0       0
  1528 ;;      Temps:          2       0       0       0       0       0       0       0       0       0       0       0       
      +0       0       0       0       0
  1529 ;;      Totals:        12       0       0       0       0       0       0       0       0       0       0       0       
      +0       0       0       0       0
  1530 ;;Total ram usage:       12 bytes
  1531 ;; Hardware stack levels used: 1
  1532 ;; This function calls:
  1533 ;;		Nothing
  1534 ;; This function is called by:
  1535 ;;		_main
  1536 ;;		_convert_byte_to_string
  1537 ;;		_convert_short_to_string
  1538 ;;		_convert_int_to_string
  1539 ;; This function uses a non-reentrant model
  1540 ;;
  1541                           
  1542                           	psect	text2
  1543   0014C8                     __ptext2:
  1544                           	callstack 0
  1545   0014C8                     _memset:
  1546                           	callstack 30
  1547   0014C8  C032  F03C         	movff	memset@dest,memset@s
  1548   0014CC  C033  F03D         	movff	memset@dest+1,memset@s+1
  1549   0014D0  5036               	movf	memset@n^0,w,c
  1550   0014D2  1037               	iorwf	(memset@n+1)^0,w,c
  1551   0014D4  A4D8               	btfss	status,2,c
  1552   0014D6  EF6F  F00A         	goto	u1911
  1553   0014DA  EF71  F00A         	goto	u1910
  1554   0014DE                     u1911:
  1555   0014DE  EF73  F00A         	goto	l3028
  1556   0014E2                     u1910:
  1557   0014E2  EF1E  F00B         	goto	l1297
  1558   0014E6                     l3028:
  1559   0014E6  C03C  FFD9         	movff	memset@s,fsr2l
  1560   0014EA  C03D  FFDA         	movff	memset@s+1,fsr2h
  1561   0014EE  C034  FFDF         	movff	memset@c,indf2
  1562   0014F2  5036               	movf	memset@n^0,w,c
  1563   0014F4  243C               	addwf	memset@s^0,w,c
  1564   0014F6  6E38               	movwf	??_memset^0,c
  1565   0014F8  5037               	movf	(memset@n+1)^0,w,c
  1566   0014FA  203D               	addwfc	(memset@s+1)^0,w,c
  1567   0014FC  6E39               	movwf	(??_memset+1)^0,c
  1568   0014FE  0EFF               	movlw	255
  1569   001500  2438               	addwf	??_memset^0,w,c
  1570   001502  6ED9               	movwf	fsr2l,c
  1571   001504  0EFF               	movlw	255
  1572   001506  2039               	addwfc	(??_memset+1)^0,w,c
  1573   001508  6EDA               	movwf	fsr2h,c
  1574   00150A  C034  FFDF         	movff	memset@c,indf2
  1575   00150E  5037               	movf	(memset@n+1)^0,w,c
  1576   001510  E107               	bnz	u1921
  1577   001512  0E03               	movlw	3
  1578   001514  5C36               	subwf	memset@n^0,w,c
  1579   001516  B0D8               	btfsc	status,0,c
  1580   001518  EF90  F00A         	goto	u1921
  1581   00151C  EF92  F00A         	goto	u1920
  1582   001520                     u1921:
  1583   001520  EF94  F00A         	goto	l3034
  1584   001524                     u1920:
  1585   001524  EF1E  F00B         	goto	l1297
  1586   001528                     l3034:
  1587   001528  EE20 F001          	lfsr	2,1
  1588   00152C  503C               	movf	memset@s^0,w,c
  1589   00152E  26D9               	addwf	fsr2l,f,c
  1590   001530  503D               	movf	(memset@s+1)^0,w,c
  1591   001532  22DA               	addwfc	fsr2h,f,c
  1592   001534  C034  FFDF         	movff	memset@c,indf2
  1593   001538  EE20 F002          	lfsr	2,2
  1594   00153C  503C               	movf	memset@s^0,w,c
  1595   00153E  26D9               	addwf	fsr2l,f,c
  1596   001540  503D               	movf	(memset@s+1)^0,w,c
  1597   001542  22DA               	addwfc	fsr2h,f,c
  1598   001544  C034  FFDF         	movff	memset@c,indf2
  1599   001548  5036               	movf	memset@n^0,w,c
  1600   00154A  243C               	addwf	memset@s^0,w,c
  1601   00154C  6E38               	movwf	??_memset^0,c
  1602   00154E  5037               	movf	(memset@n+1)^0,w,c
  1603   001550  203D               	addwfc	(memset@s+1)^0,w,c
  1604   001552  6E39               	movwf	(??_memset+1)^0,c
  1605   001554  0EFE               	movlw	254
  1606   001556  2438               	addwf	??_memset^0,w,c
  1607   001558  6ED9               	movwf	fsr2l,c
  1608   00155A  0EFF               	movlw	255
  1609   00155C  2039               	addwfc	(??_memset+1)^0,w,c
  1610   00155E  6EDA               	movwf	fsr2h,c
  1611   001560  C034  FFDF         	movff	memset@c,indf2
  1612   001564  5036               	movf	memset@n^0,w,c
  1613   001566  243C               	addwf	memset@s^0,w,c
  1614   001568  6E38               	movwf	??_memset^0,c
  1615   00156A  5037               	movf	(memset@n+1)^0,w,c
  1616   00156C  203D               	addwfc	(memset@s+1)^0,w,c
  1617   00156E  6E39               	movwf	(??_memset+1)^0,c
  1618   001570  0EFD               	movlw	253
  1619   001572  2438               	addwf	??_memset^0,w,c
  1620   001574  6ED9               	movwf	fsr2l,c
  1621   001576  0EFF               	movlw	255
  1622   001578  2039               	addwfc	(??_memset+1)^0,w,c
  1623   00157A  6EDA               	movwf	fsr2h,c
  1624   00157C  C034  FFDF         	movff	memset@c,indf2
  1625   001580  5037               	movf	(memset@n+1)^0,w,c
  1626   001582  E107               	bnz	u1931
  1627   001584  0E07               	movlw	7
  1628   001586  5C36               	subwf	memset@n^0,w,c
  1629   001588  B0D8               	btfsc	status,0,c
  1630   00158A  EFC9  F00A         	goto	u1931
  1631   00158E  EFCB  F00A         	goto	u1930
  1632   001592                     u1931:
  1633   001592  EFCD  F00A         	goto	l3040
  1634   001596                     u1930:
  1635   001596  EF1E  F00B         	goto	l1297
  1636   00159A                     l3040:
  1637   00159A  EE20 F003          	lfsr	2,3
  1638   00159E  503C               	movf	memset@s^0,w,c
  1639   0015A0  26D9               	addwf	fsr2l,f,c
  1640   0015A2  503D               	movf	(memset@s+1)^0,w,c
  1641   0015A4  22DA               	addwfc	fsr2h,f,c
  1642   0015A6  C034  FFDF         	movff	memset@c,indf2
  1643   0015AA  5036               	movf	memset@n^0,w,c
  1644   0015AC  243C               	addwf	memset@s^0,w,c
  1645   0015AE  6E38               	movwf	??_memset^0,c
  1646   0015B0  5037               	movf	(memset@n+1)^0,w,c
  1647   0015B2  203D               	addwfc	(memset@s+1)^0,w,c
  1648   0015B4  6E39               	movwf	(??_memset+1)^0,c
  1649   0015B6  0EFC               	movlw	252
  1650   0015B8  2438               	addwf	??_memset^0,w,c
  1651   0015BA  6ED9               	movwf	fsr2l,c
  1652   0015BC  0EFF               	movlw	255
  1653   0015BE  2039               	addwfc	(??_memset+1)^0,w,c
  1654   0015C0  6EDA               	movwf	fsr2h,c
  1655   0015C2  C034  FFDF         	movff	memset@c,indf2
  1656   0015C6  5037               	movf	(memset@n+1)^0,w,c
  1657   0015C8  E107               	bnz	u1941
  1658   0015CA  0E09               	movlw	9
  1659   0015CC  5C36               	subwf	memset@n^0,w,c
  1660   0015CE  B0D8               	btfsc	status,0,c
  1661   0015D0  EFEC  F00A         	goto	u1941
  1662   0015D4  EFEE  F00A         	goto	u1940
  1663   0015D8                     u1941:
  1664   0015D8  EFF0  F00A         	goto	l3046
  1665   0015DC                     u1940:
  1666   0015DC  EF1E  F00B         	goto	l1297
  1667   0015E0                     l3046:
  1668   0015E0  C03C  F038         	movff	memset@s,??_memset
  1669   0015E4  C03D  F039         	movff	memset@s+1,??_memset+1
  1670   0015E8  1E38               	comf	??_memset^0,f,c
  1671   0015EA  1E39               	comf	(??_memset+1)^0,f,c
  1672   0015EC  4A38               	infsnz	??_memset^0,f,c
  1673   0015EE  2A39               	incf	(??_memset+1)^0,f,c
  1674   0015F0  0E03               	movlw	3
  1675   0015F2  1438               	andwf	??_memset^0,w,c
  1676   0015F4  6E3A               	movwf	memset@k^0,c
  1677   0015F6  6A3B               	clrf	(memset@k+1)^0,c
  1678   0015F8  503A               	movf	memset@k^0,w,c
  1679   0015FA  263C               	addwf	memset@s^0,f,c
  1680   0015FC  503B               	movf	(memset@k+1)^0,w,c
  1681   0015FE  223D               	addwfc	(memset@s+1)^0,f,c
  1682   001600  503A               	movf	memset@k^0,w,c
  1683   001602  5E36               	subwf	memset@n^0,f,c
  1684   001604  503B               	movf	(memset@k+1)^0,w,c
  1685   001606  5A37               	subwfb	(memset@n+1)^0,f,c
  1686   001608  0EFC               	movlw	252
  1687   00160A  1636               	andwf	memset@n^0,f,c
  1688   00160C  0EFF               	movlw	255
  1689   00160E  1637               	andwf	(memset@n+1)^0,f,c
  1690   001610  EF15  F00B         	goto	l3054
  1691   001614                     l3048:
  1692   001614  C03C  FFD9         	movff	memset@s,fsr2l
  1693   001618  C03D  FFDA         	movff	memset@s+1,fsr2h
  1694   00161C  C034  FFDF         	movff	memset@c,indf2
  1695   001620  0636               	decf	memset@n^0,f,c
  1696   001622  A0D8               	btfss	status,0,c
  1697   001624  0637               	decf	(memset@n+1)^0,f,c
  1698   001626  4A3C               	infsnz	memset@s^0,f,c
  1699   001628  2A3D               	incf	(memset@s+1)^0,f,c
  1700   00162A                     l3054:
  1701   00162A  5036               	movf	memset@n^0,w,c
  1702   00162C  1037               	iorwf	(memset@n+1)^0,w,c
  1703   00162E  A4D8               	btfss	status,2,c
  1704   001630  EF1C  F00B         	goto	u1951
  1705   001634  EF1E  F00B         	goto	u1950
  1706   001638                     u1951:
  1707   001638  EF0A  F00B         	goto	l3048
  1708   00163C                     u1950:
  1709   00163C                     l1297:
  1710   00163C  0012               	return		;funcret
  1711   00163E                     __end_of_memset:
  1712                           	callstack 0
  1713                           
  1714 ;; *************** function _loading *****************
  1715 ;; Defined at:
  1716 ;;		line 133 in file "application.c"
  1717 ;; Parameters:    Size  Location     Type
  1718 ;;		None
  1719 ;; Auto vars:     Size  Location     Type
  1720 ;;  i               2   40[COMRAM] int 
  1721 ;;  j               2   38[COMRAM] int 
  1722 ;;  ret             1    0        unsigned char 
  1723 ;; Return value:  Size  Location     Type
  1724 ;;                  1    wreg      void 
  1725 ;; Registers used:
  1726 ;;		wreg, fsr2l, fsr2h, status,2, status,0, tblptrl, tblptrh, tblptru, prodl, prodh, cstack
  1727 ;; Tracked objects:
  1728 ;;		On entry : 0/0
  1729 ;;		On exit  : 0/0
  1730 ;;		Unchanged: 0/0
  1731 ;; Data sizes:     COMRAM   BANK0   BANK1   BANK2   BANK3   BANK4   BANK5   BANK6   BANK7   BANK8   BANK9  BANK10  BANK1
      +1  BANK12  BANK13  BANK14  BANK15
  1732 ;;      Params:         0       0       0       0       0       0       0       0       0       0       0       0       
      +0       0       0       0       0
  1733 ;;      Locals:         4       0       0       0       0       0       0       0       0       0       0       0       
      +0       0       0       0       0
  1734 ;;      Temps:          2       0       0       0       0       0       0       0       0       0       0       0       
      +0       0       0       0       0
  1735 ;;      Totals:         6       0       0       0       0       0       0       0       0       0       0       0       
      +0       0       0       0       0
  1736 ;;Total ram usage:        6 bytes
  1737 ;; Hardware stack levels used: 1
  1738 ;; Hardware stack levels required when called: 5
  1739 ;; This function calls:
  1740 ;;		_lcd_4bit_send_char_pos
  1741 ;;		_lcd_4bit_send_command
  1742 ;;		_lcd_4bit_send_string_pos
  1743 ;; This function is called by:
  1744 ;;		_main
  1745 ;; This function uses a non-reentrant model
  1746 ;;
  1747                           
  1748                           	psect	text3
  1749   001C32                     __ptext3:
  1750                           	callstack 0
  1751   001C32                     _loading:
  1752                           	callstack 25
  1753   001C32  0E28               	movlw	low _lcd_1
  1754   001C34  6E44               	movwf	lcd_4bit_send_command@lcd_obj^0,c
  1755   001C36  0E00               	movlw	high _lcd_1
  1756   001C38  6E45               	movwf	(lcd_4bit_send_command@lcd_obj+1)^0,c
  1757   001C3A  0E01               	movlw	1
  1758   001C3C  6E46               	movwf	lcd_4bit_send_command@command^0,c
  1759   001C3E  EC7B  F010         	call	_lcd_4bit_send_command	;wreg free
  1760   001C42                     
  1761                           ;application.c: 138:     for(int j=0;j<2;j++)
  1762   001C42  0E00               	movlw	0
  1763   001C44  6E59               	movwf	(loading@j+1)^0,c
  1764   001C46  0E00               	movlw	0
  1765   001C48  6E58               	movwf	loading@j^0,c
  1766   001C4A                     l3192:
  1767   001C4A  0E28               	movlw	low _lcd_1
  1768   001C4C  6E4F               	movwf	lcd_4bit_send_string_pos@lcd_obj^0,c
  1769   001C4E  0E00               	movlw	high _lcd_1
  1770   001C50  6E50               	movwf	(lcd_4bit_send_string_pos@lcd_obj+1)^0,c
  1771   001C52  0E01               	movlw	1
  1772   001C54  6E51               	movwf	lcd_4bit_send_string_pos@row^0,c
  1773   001C56  0E01               	movlw	1
  1774   001C58  6E52               	movwf	lcd_4bit_send_string_pos@column^0,c
  1775   001C5A  0E50               	movlw	low STR_14
  1776   001C5C  6E53               	movwf	lcd_4bit_send_string_pos@string^0,c
  1777   001C5E  0E10               	movlw	high STR_14
  1778   001C60  6E54               	movwf	(lcd_4bit_send_string_pos@string+1)^0,c
  1779   001C62  EC5F  F011         	call	_lcd_4bit_send_string_pos	;wreg free
  1780   001C66                     
  1781                           ;application.c: 141:         for(int i=11;i<=15;i++)
  1782   001C66  0E00               	movlw	0
  1783   001C68  6E5B               	movwf	(loading@i+1)^0,c
  1784   001C6A  0E0B               	movlw	11
  1785   001C6C  6E5A               	movwf	loading@i^0,c
  1786   001C6E                     l3200:
  1787   001C6E  0E28               	movlw	low _lcd_1
  1788   001C70  6E4F               	movwf	lcd_4bit_send_char_pos@lcd_obj^0,c
  1789   001C72  0E00               	movlw	high _lcd_1
  1790   001C74  6E50               	movwf	(lcd_4bit_send_char_pos@lcd_obj+1)^0,c
  1791   001C76  0E01               	movlw	1
  1792   001C78  6E51               	movwf	lcd_4bit_send_char_pos@row^0,c
  1793   001C7A  C05A  F052         	movff	loading@i,lcd_4bit_send_char_pos@column
  1794   001C7E  0E2E               	movlw	46
  1795   001C80  6E53               	movwf	lcd_4bit_send_char_pos@chr^0,c
  1796   001C82  ECB3  F011         	call	_lcd_4bit_send_char_pos	;wreg free
  1797   001C86                     
  1798                           ;application.c: 144:            _delay((unsigned long)((200)*(4000000UL/4000.0)));
  1799   001C86  0E02               	movlw	2
  1800   001C88  6E57               	movwf	(??_loading+1)^0,c
  1801   001C8A  0E04               	movlw	4
  1802   001C8C  6E56               	movwf	??_loading^0,c
  1803   001C8E  0EBA               	movlw	186
  1804   001C90                     u2647:
  1805   001C90  2EE8               	decfsz	wreg,f,c
  1806   001C92  D7FE               	bra	u2647
  1807   001C94  2E56               	decfsz	??_loading^0,f,c
  1808   001C96  D7FC               	bra	u2647
  1809   001C98  2E57               	decfsz	(??_loading+1)^0,f,c
  1810   001C9A  D7FA               	bra	u2647
  1811   001C9C  D000               	nop2	
  1812   001C9E                     
  1813                           ;application.c: 145:        }
  1814   001C9E  4A5A               	infsnz	loading@i^0,f,c
  1815   001CA0  2A5B               	incf	(loading@i+1)^0,f,c
  1816   001CA2  BE5B               	btfsc	(loading@i+1)^0,7,c
  1817   001CA4  EF5D  F00E         	goto	u2091
  1818   001CA8  505B               	movf	(loading@i+1)^0,w,c
  1819   001CAA  E109               	bnz	u2090
  1820   001CAC  0E10               	movlw	16
  1821   001CAE  5C5A               	subwf	loading@i^0,w,c
  1822   001CB0  A0D8               	btfss	status,0,c
  1823   001CB2  EF5D  F00E         	goto	u2091
  1824   001CB6  EF5F  F00E         	goto	u2090
  1825   001CBA                     u2091:
  1826   001CBA  EF37  F00E         	goto	l3200
  1827   001CBE                     u2090:
  1828   001CBE                     
  1829                           ;application.c: 146:         _delay((unsigned long)((1000)*(4000000UL/4000.0)));
  1830   001CBE  0E06               	movlw	6
  1831   001CC0  6E57               	movwf	(??_loading+1)^0,c
  1832   001CC2  0E13               	movlw	19
  1833   001CC4  6E56               	movwf	??_loading^0,c
  1834   001CC6  0EAE               	movlw	174
  1835   001CC8                     u2657:
  1836   001CC8  2EE8               	decfsz	wreg,f,c
  1837   001CCA  D7FE               	bra	u2657
  1838   001CCC  2E56               	decfsz	??_loading^0,f,c
  1839   001CCE  D7FC               	bra	u2657
  1840   001CD0  2E57               	decfsz	(??_loading+1)^0,f,c
  1841   001CD2  D7FA               	bra	u2657
  1842   001CD4  0E28               	movlw	low _lcd_1
  1843   001CD6  6E44               	movwf	lcd_4bit_send_command@lcd_obj^0,c
  1844   001CD8  0E00               	movlw	high _lcd_1
  1845   001CDA  6E45               	movwf	(lcd_4bit_send_command@lcd_obj+1)^0,c
  1846   001CDC  0E01               	movlw	1
  1847   001CDE  6E46               	movwf	lcd_4bit_send_command@command^0,c
  1848   001CE0  EC7B  F010         	call	_lcd_4bit_send_command	;wreg free
  1849   001CE4                     
  1850                           ;application.c: 148:     }
  1851   001CE4  4A58               	infsnz	loading@j^0,f,c
  1852   001CE6  2A59               	incf	(loading@j+1)^0,f,c
  1853   001CE8  BE59               	btfsc	(loading@j+1)^0,7,c
  1854   001CEA  EF80  F00E         	goto	u2101
  1855   001CEE  5059               	movf	(loading@j+1)^0,w,c
  1856   001CF0  E109               	bnz	u2100
  1857   001CF2  0E02               	movlw	2
  1858   001CF4  5C58               	subwf	loading@j^0,w,c
  1859   001CF6  A0D8               	btfss	status,0,c
  1860   001CF8  EF80  F00E         	goto	u2101
  1861   001CFC  EF82  F00E         	goto	u2100
  1862   001D00                     u2101:
  1863   001D00  EF25  F00E         	goto	l3192
  1864   001D04                     u2100:
  1865   001D04  0012               	return		;funcret
  1866   001D06                     __end_of_loading:
  1867                           	callstack 0
  1868                           
  1869 ;; *************** function _lcd_4bit_send_string_pos *****************
  1870 ;; Defined at:
  1871 ;;		line 173 in file "ECU_layer/Char_lCD/ecu_chr_lcd.c"
  1872 ;; Parameters:    Size  Location     Type
  1873 ;;  lcd_obj         2   29[COMRAM] PTR const struct .
  1874 ;;		 -> lcd_1(6), 
  1875 ;;  row             1   31[COMRAM] unsigned char 
  1876 ;;  column          1   32[COMRAM] unsigned char 
  1877 ;;  string          2   33[COMRAM] PTR unsigned char 
  1878 ;;		 -> STR_14(12), STR_13(17), STR_12(17), STR_11(10), 
  1879 ;;		 -> STR_10(17), STR_9(17), STR_8(7), STR_7(17), 
  1880 ;;		 -> STR_6(16), STR_5(8), STR_4(17), 
  1881 ;; Auto vars:     Size  Location     Type
  1882 ;;  ret             1   35[COMRAM] unsigned char 
  1883 ;; Return value:  Size  Location     Type
  1884 ;;                  1    wreg      unsigned char 
  1885 ;; Registers used:
  1886 ;;		wreg, fsr2l, fsr2h, status,2, status,0, tblptrl, tblptrh, tblptru, prodl, prodh, cstack
  1887 ;; Tracked objects:
  1888 ;;		On entry : 0/0
  1889 ;;		On exit  : 0/0
  1890 ;;		Unchanged: 0/0
  1891 ;; Data sizes:     COMRAM   BANK0   BANK1   BANK2   BANK3   BANK4   BANK5   BANK6   BANK7   BANK8   BANK9  BANK10  BANK1
      +1  BANK12  BANK13  BANK14  BANK15
  1892 ;;      Params:         6       0       0       0       0       0       0       0       0       0       0       0       
      +0       0       0       0       0
  1893 ;;      Locals:         1       0       0       0       0       0       0       0       0       0       0       0       
      +0       0       0       0       0
  1894 ;;      Temps:          0       0       0       0       0       0       0       0       0       0       0       0       
      +0       0       0       0       0
  1895 ;;      Totals:         7       0       0       0       0       0       0       0       0       0       0       0       
      +0       0       0       0       0
  1896 ;;Total ram usage:        7 bytes
  1897 ;; Hardware stack levels used: 1
  1898 ;; Hardware stack levels required when called: 4
  1899 ;; This function calls:
  1900 ;;		_lcd_4bit_send_string
  1901 ;;		_lcd_4bit_set_cursor
  1902 ;; This function is called by:
  1903 ;;		_main
  1904 ;;		_loading
  1905 ;; This function uses a non-reentrant model
  1906 ;;
  1907                           
  1908                           	psect	text4
  1909   0022BE                     __ptext4:
  1910                           	callstack 0
  1911   0022BE                     _lcd_4bit_send_string_pos:
  1912                           	callstack 25
  1913   0022BE                     
  1914                           ;ECU_layer/Char_lCD/ecu_chr_lcd.c: 176:     if((lcd_obj == ((void*)0))||(string==((void*
      +                          )0)))
  1915   0022BE  504F               	movf	lcd_4bit_send_string_pos@lcd_obj^0,w,c
  1916   0022C0  1050               	iorwf	(lcd_4bit_send_string_pos@lcd_obj+1)^0,w,c
  1917   0022C2  B4D8               	btfsc	status,2,c
  1918   0022C4  EF66  F011         	goto	u1701
  1919   0022C8  EF68  F011         	goto	u1700
  1920   0022CC                     u1701:
  1921   0022CC  EF71  F011         	goto	l2868
  1922   0022D0                     u1700:
  1923   0022D0  5053               	movf	lcd_4bit_send_string_pos@string^0,w,c
  1924   0022D2  1054               	iorwf	(lcd_4bit_send_string_pos@string+1)^0,w,c
  1925   0022D4  A4D8               	btfss	status,2,c
  1926   0022D6  EF6F  F011         	goto	u1711
  1927   0022DA  EF71  F011         	goto	u1710
  1928   0022DE                     u1711:
  1929   0022DE  EF75  F011         	goto	l2870
  1930   0022E2                     u1710:
  1931   0022E2                     l2868:
  1932                           
  1933                           ;ECU_layer/Char_lCD/ecu_chr_lcd.c: 177:     {;ECU_layer/Char_lCD/ecu_chr_lcd.c: 178:    
      +                               ret = (Std_ReturnType)0x00;
  1934   0022E2  0E00               	movlw	0
  1935   0022E4  6E55               	movwf	lcd_4bit_send_string_pos@ret^0,c
  1936                           
  1937                           ;ECU_layer/Char_lCD/ecu_chr_lcd.c: 179:     }
  1938   0022E6  EF8A  F011         	goto	l2874
  1939   0022EA                     l2870:
  1940   0022EA  C04F  F048         	movff	lcd_4bit_send_string_pos@lcd_obj,lcd_4bit_set_cursor@lcd_obj
  1941   0022EE  C050  F049         	movff	lcd_4bit_send_string_pos@lcd_obj+1,lcd_4bit_set_cursor@lcd_obj+1
  1942   0022F2  C051  F04A         	movff	lcd_4bit_send_string_pos@row,lcd_4bit_set_cursor@row
  1943   0022F6  C052  F04B         	movff	lcd_4bit_send_string_pos@column,lcd_4bit_set_cursor@column
  1944   0022FA  EC83  F00E         	call	_lcd_4bit_set_cursor	;wreg free
  1945   0022FE                     
  1946                           ;ECU_layer/Char_lCD/ecu_chr_lcd.c: 183:         ret = lcd_4bit_send_string(lcd_obj,strin
      +                          g);
  1947   0022FE  C04F  F048         	movff	lcd_4bit_send_string_pos@lcd_obj,lcd_4bit_send_string@lcd_obj
  1948   002302  C050  F049         	movff	lcd_4bit_send_string_pos@lcd_obj+1,lcd_4bit_send_string@lcd_obj+1
  1949   002306  C053  F04A         	movff	lcd_4bit_send_string_pos@string,lcd_4bit_send_string@string
  1950   00230A  C054  F04B         	movff	lcd_4bit_send_string_pos@string+1,lcd_4bit_send_string@string+1
  1951   00230E  ECF1  F010         	call	_lcd_4bit_send_string	;wreg free
  1952   002312  6E55               	movwf	lcd_4bit_send_string_pos@ret^0,c
  1953   002314                     l2874:
  1954                           
  1955                           ;ECU_layer/Char_lCD/ecu_chr_lcd.c: 186:     return ret;
  1956   002314  5055               	movf	lcd_4bit_send_string_pos@ret^0,w,c
  1957   002316  0012               	return		;funcret
  1958   002318                     __end_of_lcd_4bit_send_string_pos:
  1959                           	callstack 0
  1960                           
  1961 ;; *************** function _lcd_4bit_send_string *****************
  1962 ;; Defined at:
  1963 ;;		line 144 in file "ECU_layer/Char_lCD/ecu_chr_lcd.c"
  1964 ;; Parameters:    Size  Location     Type
  1965 ;;  lcd_obj         2   22[COMRAM] PTR const struct .
  1966 ;;		 -> lcd_1(6), 
  1967 ;;  string          2   24[COMRAM] PTR unsigned char 
  1968 ;;		 -> STR_14(12), STR_13(17), STR_12(17), STR_11(10), 
  1969 ;;		 -> STR_10(17), STR_9(17), STR_8(7), STR_7(17), 
  1970 ;;		 -> STR_6(16), STR_5(8), STR_4(17), 
  1971 ;; Auto vars:     Size  Location     Type
  1972 ;;  ret             1   26[COMRAM] unsigned char 
  1973 ;; Return value:  Size  Location     Type
  1974 ;;                  1    wreg      unsigned char 
  1975 ;; Registers used:
  1976 ;;		wreg, fsr2l, fsr2h, status,2, status,0, tblptrl, tblptrh, tblptru, prodl, prodh, cstack
  1977 ;; Tracked objects:
  1978 ;;		On entry : 0/0
  1979 ;;		On exit  : 0/0
  1980 ;;		Unchanged: 0/0
  1981 ;; Data sizes:     COMRAM   BANK0   BANK1   BANK2   BANK3   BANK4   BANK5   BANK6   BANK7   BANK8   BANK9  BANK10  BANK1
      +1  BANK12  BANK13  BANK14  BANK15
  1982 ;;      Params:         4       0       0       0       0       0       0       0       0       0       0       0       
      +0       0       0       0       0
  1983 ;;      Locals:         1       0       0       0       0       0       0       0       0       0       0       0       
      +0       0       0       0       0
  1984 ;;      Temps:          0       0       0       0       0       0       0       0       0       0       0       0       
      +0       0       0       0       0
  1985 ;;      Totals:         5       0       0       0       0       0       0       0       0       0       0       0       
      +0       0       0       0       0
  1986 ;;Total ram usage:        5 bytes
  1987 ;; Hardware stack levels used: 1
  1988 ;; Hardware stack levels required when called: 3
  1989 ;; This function calls:
  1990 ;;		_lcd_4bit_send_char
  1991 ;; This function is called by:
  1992 ;;		_lcd_4bit_send_string_pos
  1993 ;; This function uses a non-reentrant model
  1994 ;;
  1995                           
  1996                           	psect	text5
  1997   0021E2                     __ptext5:
  1998                           	callstack 0
  1999   0021E2                     _lcd_4bit_send_string:
  2000                           	callstack 25
  2001   0021E2                     
  2002                           ;ECU_layer/Char_lCD/ecu_chr_lcd.c: 144: Std_ReturnType lcd_4bit_send_string(const lcd_4b
      +                          it_t *lcd_obj,uint8 *string);ECU_layer/Char_lCD/ecu_chr_lcd.c: 145: {;ECU_layer/Char_lCD
      +                          /ecu_chr_lcd.c: 146:     Std_ReturnType ret = (Std_ReturnType)0x01;
  2003   0021E2  0E01               	movlw	1
  2004   0021E4  6E4C               	movwf	lcd_4bit_send_string@ret^0,c
  2005   0021E6                     
  2006                           ;ECU_layer/Char_lCD/ecu_chr_lcd.c: 147:     if((lcd_obj == ((void*)0))||(string==((void*
      +                          )0)))
  2007   0021E6  5048               	movf	lcd_4bit_send_string@lcd_obj^0,w,c
  2008   0021E8  1049               	iorwf	(lcd_4bit_send_string@lcd_obj+1)^0,w,c
  2009   0021EA  B4D8               	btfsc	status,2,c
  2010   0021EC  EFFA  F010         	goto	u1601
  2011   0021F0  EFFC  F010         	goto	u1600
  2012   0021F4                     u1601:
  2013   0021F4  EF05  F011         	goto	l2774
  2014   0021F8                     u1600:
  2015   0021F8  504A               	movf	lcd_4bit_send_string@string^0,w,c
  2016   0021FA  104B               	iorwf	(lcd_4bit_send_string@string+1)^0,w,c
  2017   0021FC  A4D8               	btfss	status,2,c
  2018   0021FE  EF03  F011         	goto	u1611
  2019   002202  EF05  F011         	goto	u1610
  2020   002206                     u1611:
  2021   002206  EF19  F011         	goto	l2780
  2022   00220A                     u1610:
  2023   00220A                     l2774:
  2024                           
  2025                           ;ECU_layer/Char_lCD/ecu_chr_lcd.c: 148:     {;ECU_layer/Char_lCD/ecu_chr_lcd.c: 149:    
      +                               ret = (Std_ReturnType)0x00;
  2026   00220A  0E00               	movlw	0
  2027   00220C  6E4C               	movwf	lcd_4bit_send_string@ret^0,c
  2028                           
  2029                           ;ECU_layer/Char_lCD/ecu_chr_lcd.c: 150:     }
  2030   00220E  EF27  F011         	goto	l2782
  2031   002212                     l2776:
  2032                           
  2033                           ;ECU_layer/Char_lCD/ecu_chr_lcd.c: 154:         {;ECU_layer/Char_lCD/ecu_chr_lcd.c: 155:
      +                                       ret = lcd_4bit_send_char(lcd_obj,*string++);
  2034   002212  C048  F044         	movff	lcd_4bit_send_string@lcd_obj,lcd_4bit_send_char@lcd_obj
  2035   002216  C049  F045         	movff	lcd_4bit_send_string@lcd_obj+1,lcd_4bit_send_char@lcd_obj+1
  2036   00221A  C04A  FFF6         	movff	lcd_4bit_send_string@string,tblptrl
  2037   00221E  C04B  FFF7         	movff	lcd_4bit_send_string@string+1,tblptrh
  2038   002222                     	if	0	;tblptru may be non-zero
  2039   002222                     	endif
  2040   002222                     	if	0	;tblptru may be non-zero
  2041   002222                     	endif
  2042   002222  0008               	tblrd		*
  2043   002224  CFF5 F046          	movff	tablat,lcd_4bit_send_char@chr
  2044   002228  EC40  F010         	call	_lcd_4bit_send_char	;wreg free
  2045   00222C  6E4C               	movwf	lcd_4bit_send_string@ret^0,c
  2046   00222E  4A4A               	infsnz	lcd_4bit_send_string@string^0,f,c
  2047   002230  2A4B               	incf	(lcd_4bit_send_string@string+1)^0,f,c
  2048   002232                     l2780:
  2049                           
  2050                           ;ECU_layer/Char_lCD/ecu_chr_lcd.c: 153:         while(*string)
  2051   002232  C04A  FFF6         	movff	lcd_4bit_send_string@string,tblptrl
  2052   002236  C04B  FFF7         	movff	lcd_4bit_send_string@string+1,tblptrh
  2053   00223A                     	if	0	;tblptru may be non-zero
  2054   00223A                     	endif
  2055   00223A                     	if	0	;tblptru may be non-zero
  2056   00223A                     	endif
  2057   00223A  0008               	tblrd		*
  2058   00223C  50F5               	movf	tablat,w,c
  2059   00223E  0900               	iorlw	0
  2060   002240  A4D8               	btfss	status,2,c
  2061   002242  EF25  F011         	goto	u1621
  2062   002246  EF27  F011         	goto	u1620
  2063   00224A                     u1621:
  2064   00224A  EF09  F011         	goto	l2776
  2065   00224E                     u1620:
  2066   00224E                     l2782:
  2067                           
  2068                           ;ECU_layer/Char_lCD/ecu_chr_lcd.c: 160:     return ret;
  2069   00224E  504C               	movf	lcd_4bit_send_string@ret^0,w,c
  2070   002250  0012               	return		;funcret
  2071   002252                     __end_of_lcd_4bit_send_string:
  2072                           	callstack 0
  2073                           
  2074 ;; *************** function _lcd_4bit_send_char_pos *****************
  2075 ;; Defined at:
  2076 ;;		line 120 in file "ECU_layer/Char_lCD/ecu_chr_lcd.c"
  2077 ;; Parameters:    Size  Location     Type
  2078 ;;  lcd_obj         2   29[COMRAM] PTR const struct .
  2079 ;;		 -> lcd_1(6), 
  2080 ;;  row             1   31[COMRAM] unsigned char 
  2081 ;;  column          1   32[COMRAM] unsigned char 
  2082 ;;  chr             1   33[COMRAM] unsigned char 
  2083 ;; Auto vars:     Size  Location     Type
  2084 ;;  ret             1   34[COMRAM] unsigned char 
  2085 ;; Return value:  Size  Location     Type
  2086 ;;                  1    wreg      unsigned char 
  2087 ;; Registers used:
  2088 ;;		wreg, fsr2l, fsr2h, status,2, status,0, prodl, prodh, cstack
  2089 ;; Tracked objects:
  2090 ;;		On entry : 0/0
  2091 ;;		On exit  : 0/0
  2092 ;;		Unchanged: 0/0
  2093 ;; Data sizes:     COMRAM   BANK0   BANK1   BANK2   BANK3   BANK4   BANK5   BANK6   BANK7   BANK8   BANK9  BANK10  BANK1
      +1  BANK12  BANK13  BANK14  BANK15
  2094 ;;      Params:         5       0       0       0       0       0       0       0       0       0       0       0       
      +0       0       0       0       0
  2095 ;;      Locals:         1       0       0       0       0       0       0       0       0       0       0       0       
      +0       0       0       0       0
  2096 ;;      Temps:          0       0       0       0       0       0       0       0       0       0       0       0       
      +0       0       0       0       0
  2097 ;;      Totals:         6       0       0       0       0       0       0       0       0       0       0       0       
      +0       0       0       0       0
  2098 ;;Total ram usage:        6 bytes
  2099 ;; Hardware stack levels used: 1
  2100 ;; Hardware stack levels required when called: 4
  2101 ;; This function calls:
  2102 ;;		_lcd_4bit_send_char
  2103 ;;		_lcd_4bit_set_cursor
  2104 ;; This function is called by:
  2105 ;;		_main
  2106 ;;		_loading
  2107 ;;		_lcd_4bit_send_custome_chr
  2108 ;; This function uses a non-reentrant model
  2109 ;;
  2110                           
  2111                           	psect	text6
  2112   002366                     __ptext6:
  2113                           	callstack 0
  2114   002366                     _lcd_4bit_send_char_pos:
  2115                           	callstack 25
  2116   002366                     
  2117                           ;ECU_layer/Char_lCD/ecu_chr_lcd.c: 123:     if(lcd_obj == ((void*)0))
  2118   002366  504F               	movf	lcd_4bit_send_char_pos@lcd_obj^0,w,c
  2119   002368  1050               	iorwf	(lcd_4bit_send_char_pos@lcd_obj+1)^0,w,c
  2120   00236A  A4D8               	btfss	status,2,c
  2121   00236C  EFBA  F011         	goto	u1691
  2122   002370  EFBC  F011         	goto	u1690
  2123   002374                     u1691:
  2124   002374  EFC0  F011         	goto	l2856
  2125   002378                     u1690:
  2126   002378                     
  2127                           ;ECU_layer/Char_lCD/ecu_chr_lcd.c: 124:     {;ECU_layer/Char_lCD/ecu_chr_lcd.c: 125:    
      +                               ret = (Std_ReturnType)0x00;
  2128   002378  0E00               	movlw	0
  2129   00237A  6E54               	movwf	lcd_4bit_send_char_pos@ret^0,c
  2130                           
  2131                           ;ECU_layer/Char_lCD/ecu_chr_lcd.c: 126:     }
  2132   00237C  EFD4  F011         	goto	l2858
  2133   002380                     l2856:
  2134                           
  2135                           ;ECU_layer/Char_lCD/ecu_chr_lcd.c: 128:     {;ECU_layer/Char_lCD/ecu_chr_lcd.c: 129:    
      +                               ret = lcd_4bit_set_cursor(lcd_obj,row,column);
  2136   002380  C04F  F048         	movff	lcd_4bit_send_char_pos@lcd_obj,lcd_4bit_set_cursor@lcd_obj
  2137   002384  C050  F049         	movff	lcd_4bit_send_char_pos@lcd_obj+1,lcd_4bit_set_cursor@lcd_obj+1
  2138   002388  C051  F04A         	movff	lcd_4bit_send_char_pos@row,lcd_4bit_set_cursor@row
  2139   00238C  C052  F04B         	movff	lcd_4bit_send_char_pos@column,lcd_4bit_set_cursor@column
  2140   002390  EC83  F00E         	call	_lcd_4bit_set_cursor	;wreg free
  2141   002394  6E54               	movwf	lcd_4bit_send_char_pos@ret^0,c
  2142                           
  2143                           ;ECU_layer/Char_lCD/ecu_chr_lcd.c: 130:         ret = lcd_4bit_send_char(lcd_obj,chr);
  2144   002396  C04F  F044         	movff	lcd_4bit_send_char_pos@lcd_obj,lcd_4bit_send_char@lcd_obj
  2145   00239A  C050  F045         	movff	lcd_4bit_send_char_pos@lcd_obj+1,lcd_4bit_send_char@lcd_obj+1
  2146   00239E  C053  F046         	movff	lcd_4bit_send_char_pos@chr,lcd_4bit_send_char@chr
  2147   0023A2  EC40  F010         	call	_lcd_4bit_send_char	;wreg free
  2148   0023A6  6E54               	movwf	lcd_4bit_send_char_pos@ret^0,c
  2149   0023A8                     l2858:
  2150                           
  2151                           ;ECU_layer/Char_lCD/ecu_chr_lcd.c: 133:     return ret;
  2152   0023A8  5054               	movf	lcd_4bit_send_char_pos@ret^0,w,c
  2153   0023AA  0012               	return		;funcret
  2154   0023AC                     __end_of_lcd_4bit_send_char_pos:
  2155                           	callstack 0
  2156                           
  2157 ;; *************** function _lcd_4bit_set_cursor *****************
  2158 ;; Defined at:
  2159 ;;		line 569 in file "ECU_layer/Char_lCD/ecu_chr_lcd.c"
  2160 ;; Parameters:    Size  Location     Type
  2161 ;;  lcd_obj         2   22[COMRAM] PTR const struct .
  2162 ;;		 -> lcd_1(6), 
  2163 ;;  row             1   24[COMRAM] unsigned char 
  2164 ;;  column          1   25[COMRAM] unsigned char 
  2165 ;; Auto vars:     Size  Location     Type
  2166 ;;  ret             1   28[COMRAM] unsigned char 
  2167 ;; Return value:  Size  Location     Type
  2168 ;;                  1    wreg      unsigned char 
  2169 ;; Registers used:
  2170 ;;		wreg, fsr2l, fsr2h, status,2, status,0, prodl, prodh, cstack
  2171 ;; Tracked objects:
  2172 ;;		On entry : 0/0
  2173 ;;		On exit  : 0/0
  2174 ;;		Unchanged: 0/0
  2175 ;; Data sizes:     COMRAM   BANK0   BANK1   BANK2   BANK3   BANK4   BANK5   BANK6   BANK7   BANK8   BANK9  BANK10  BANK1
      +1  BANK12  BANK13  BANK14  BANK15
  2176 ;;      Params:         4       0       0       0       0       0       0       0       0       0       0       0       
      +0       0       0       0       0
  2177 ;;      Locals:         1       0       0       0       0       0       0       0       0       0       0       0       
      +0       0       0       0       0
  2178 ;;      Temps:          2       0       0       0       0       0       0       0       0       0       0       0       
      +0       0       0       0       0
  2179 ;;      Totals:         7       0       0       0       0       0       0       0       0       0       0       0       
      +0       0       0       0       0
  2180 ;;Total ram usage:        7 bytes
  2181 ;; Hardware stack levels used: 1
  2182 ;; Hardware stack levels required when called: 3
  2183 ;; This function calls:
  2184 ;;		_lcd_4bit_send_command
  2185 ;; This function is called by:
  2186 ;;		_lcd_4bit_send_char_pos
  2187 ;;		_lcd_4bit_send_string_pos
  2188 ;; This function uses a non-reentrant model
  2189 ;;
  2190                           
  2191                           	psect	text7
  2192   001D06                     __ptext7:
  2193                           	callstack 0
  2194   001D06                     _lcd_4bit_set_cursor:
  2195                           	callstack 25
  2196   001D06                     
  2197                           ;ECU_layer/Char_lCD/ecu_chr_lcd.c: 569: static Std_ReturnType lcd_4bit_set_cursor(const 
      +                          lcd_4bit_t *lcd_obj,uint8 row,uint8 column);ECU_layer/Char_lCD/ecu_chr_lcd.c: 570: {;ECU
      +                          _layer/Char_lCD/ecu_chr_lcd.c: 571:     Std_ReturnType ret = (Std_ReturnType)0x01;
  2198   001D06  0E01               	movlw	1
  2199   001D08  6E4E               	movwf	lcd_4bit_set_cursor@ret^0,c
  2200   001D0A                     
  2201                           ;ECU_layer/Char_lCD/ecu_chr_lcd.c: 572:     if(lcd_obj == ((void*)0))
  2202   001D0A  5048               	movf	lcd_4bit_set_cursor@lcd_obj^0,w,c
  2203   001D0C  1049               	iorwf	(lcd_4bit_set_cursor@lcd_obj+1)^0,w,c
  2204   001D0E  A4D8               	btfss	status,2,c
  2205   001D10  EF8C  F00E         	goto	u1591
  2206   001D14  EF8E  F00E         	goto	u1590
  2207   001D18                     u1591:
  2208   001D18  EF92  F00E         	goto	l2748
  2209   001D1C                     u1590:
  2210   001D1C                     
  2211                           ;ECU_layer/Char_lCD/ecu_chr_lcd.c: 573:     {;ECU_layer/Char_lCD/ecu_chr_lcd.c: 574:    
      +                               ret = (Std_ReturnType)0x00;
  2212   001D1C  0E00               	movlw	0
  2213   001D1E  6E4E               	movwf	lcd_4bit_set_cursor@ret^0,c
  2214                           
  2215                           ;ECU_layer/Char_lCD/ecu_chr_lcd.c: 575:     }
  2216   001D20  EFE2  F00E         	goto	l2760
  2217   001D24                     l2748:
  2218                           
  2219                           ;ECU_layer/Char_lCD/ecu_chr_lcd.c: 577:     {;ECU_layer/Char_lCD/ecu_chr_lcd.c: 578:    
      +                               column--;
  2220   001D24  064B               	decf	lcd_4bit_set_cursor@column^0,f,c
  2221                           
  2222                           ;ECU_layer/Char_lCD/ecu_chr_lcd.c: 579:         switch (row)
  2223   001D26  EFC5  F00E         	goto	l2758
  2224   001D2A                     l2750:
  2225                           
  2226                           ;ECU_layer/Char_lCD/ecu_chr_lcd.c: 582:                 ret = lcd_4bit_send_command(lcd_
      +                          obj,(0x80 + column));
  2227   001D2A  C048  F044         	movff	lcd_4bit_set_cursor@lcd_obj,lcd_4bit_send_command@lcd_obj
  2228   001D2E  C049  F045         	movff	lcd_4bit_set_cursor@lcd_obj+1,lcd_4bit_send_command@lcd_obj+1
  2229   001D32  504B               	movf	lcd_4bit_set_cursor@column^0,w,c
  2230   001D34  0F80               	addlw	128
  2231   001D36  6E46               	movwf	lcd_4bit_send_command@command^0,c
  2232   001D38  EC7B  F010         	call	_lcd_4bit_send_command	;wreg free
  2233   001D3C  6E4E               	movwf	lcd_4bit_set_cursor@ret^0,c
  2234                           
  2235                           ;ECU_layer/Char_lCD/ecu_chr_lcd.c: 583:             break;
  2236   001D3E  EFE2  F00E         	goto	l2760
  2237   001D42                     l2752:
  2238                           
  2239                           ;ECU_layer/Char_lCD/ecu_chr_lcd.c: 585:                 ret = lcd_4bit_send_command(lcd_
      +                          obj,(0xC0 + column));
  2240   001D42  C048  F044         	movff	lcd_4bit_set_cursor@lcd_obj,lcd_4bit_send_command@lcd_obj
  2241   001D46  C049  F045         	movff	lcd_4bit_set_cursor@lcd_obj+1,lcd_4bit_send_command@lcd_obj+1
  2242   001D4A  504B               	movf	lcd_4bit_set_cursor@column^0,w,c
  2243   001D4C  0FC0               	addlw	192
  2244   001D4E  6E46               	movwf	lcd_4bit_send_command@command^0,c
  2245   001D50  EC7B  F010         	call	_lcd_4bit_send_command	;wreg free
  2246   001D54  6E4E               	movwf	lcd_4bit_set_cursor@ret^0,c
  2247                           
  2248                           ;ECU_layer/Char_lCD/ecu_chr_lcd.c: 586:             break;
  2249   001D56  EFE2  F00E         	goto	l2760
  2250   001D5A                     l2754:
  2251                           
  2252                           ;ECU_layer/Char_lCD/ecu_chr_lcd.c: 588:                 ret = lcd_4bit_send_command(lcd_
      +                          obj,(0x94 + column));
  2253   001D5A  C048  F044         	movff	lcd_4bit_set_cursor@lcd_obj,lcd_4bit_send_command@lcd_obj
  2254   001D5E  C049  F045         	movff	lcd_4bit_set_cursor@lcd_obj+1,lcd_4bit_send_command@lcd_obj+1
  2255   001D62  504B               	movf	lcd_4bit_set_cursor@column^0,w,c
  2256   001D64  0F94               	addlw	148
  2257   001D66  6E46               	movwf	lcd_4bit_send_command@command^0,c
  2258   001D68  EC7B  F010         	call	_lcd_4bit_send_command	;wreg free
  2259   001D6C  6E4E               	movwf	lcd_4bit_set_cursor@ret^0,c
  2260                           
  2261                           ;ECU_layer/Char_lCD/ecu_chr_lcd.c: 589:             break;
  2262   001D6E  EFE2  F00E         	goto	l2760
  2263   001D72                     l2756:
  2264                           
  2265                           ;ECU_layer/Char_lCD/ecu_chr_lcd.c: 591:                 ret = lcd_4bit_send_command(lcd_
      +                          obj,(0xD4 + column));
  2266   001D72  C048  F044         	movff	lcd_4bit_set_cursor@lcd_obj,lcd_4bit_send_command@lcd_obj
  2267   001D76  C049  F045         	movff	lcd_4bit_set_cursor@lcd_obj+1,lcd_4bit_send_command@lcd_obj+1
  2268   001D7A  504B               	movf	lcd_4bit_set_cursor@column^0,w,c
  2269   001D7C  0FD4               	addlw	212
  2270   001D7E  6E46               	movwf	lcd_4bit_send_command@command^0,c
  2271   001D80  EC7B  F010         	call	_lcd_4bit_send_command	;wreg free
  2272   001D84  6E4E               	movwf	lcd_4bit_set_cursor@ret^0,c
  2273                           
  2274                           ;ECU_layer/Char_lCD/ecu_chr_lcd.c: 592:             break;
  2275   001D86  EFE2  F00E         	goto	l2760
  2276   001D8A                     l2758:
  2277   001D8A  504A               	movf	lcd_4bit_set_cursor@row^0,w,c
  2278   001D8C  6E4C               	movwf	??_lcd_4bit_set_cursor^0,c
  2279   001D8E  6A4D               	clrf	(??_lcd_4bit_set_cursor+1)^0,c
  2280                           
  2281                           ; Switch on 2 bytes has been partitioned into a top level switch of size 1, and 1 sub-sw
      +                          itches
  2282                           ; Switch size 1, requested type "simple"
  2283                           ; Number of cases is 1, Range of values is 0 to 0
  2284                           ; switch strategies available:
  2285                           ; Name         Instructions Cycles
  2286                           ; simple_byte            4     3 (average)
  2287                           ;	Chosen strategy is simple_byte
  2288   001D90  504D               	movf	(??_lcd_4bit_set_cursor+1)^0,w,c
  2289   001D92  0A00               	xorlw	0	; case 0
  2290   001D94  B4D8               	btfsc	status,2,c
  2291   001D96  EFCF  F00E         	goto	l3708
  2292   001D9A  EFE2  F00E         	goto	l2760
  2293   001D9E                     l3708:
  2294                           
  2295                           ; Switch size 1, requested type "simple"
  2296                           ; Number of cases is 4, Range of values is 1 to 4
  2297                           ; switch strategies available:
  2298                           ; Name         Instructions Cycles
  2299                           ; simple_byte           13     7 (average)
  2300                           ;	Chosen strategy is simple_byte
  2301   001D9E  504C               	movf	??_lcd_4bit_set_cursor^0,w,c
  2302   001DA0  0A01               	xorlw	1	; case 1
  2303   001DA2  B4D8               	btfsc	status,2,c
  2304   001DA4  EF95  F00E         	goto	l2750
  2305   001DA8  0A03               	xorlw	3	; case 2
  2306   001DAA  B4D8               	btfsc	status,2,c
  2307   001DAC  EFA1  F00E         	goto	l2752
  2308   001DB0  0A01               	xorlw	1	; case 3
  2309   001DB2  B4D8               	btfsc	status,2,c
  2310   001DB4  EFAD  F00E         	goto	l2754
  2311   001DB8  0A07               	xorlw	7	; case 4
  2312   001DBA  B4D8               	btfsc	status,2,c
  2313   001DBC  EFB9  F00E         	goto	l2756
  2314   001DC0  EFE2  F00E         	goto	l2760
  2315   001DC4                     l2760:
  2316                           
  2317                           ;ECU_layer/Char_lCD/ecu_chr_lcd.c: 598:     return ret;
  2318   001DC4  504E               	movf	lcd_4bit_set_cursor@ret^0,w,c
  2319   001DC6  0012               	return		;funcret
  2320   001DC8                     __end_of_lcd_4bit_set_cursor:
  2321                           	callstack 0
  2322                           
  2323 ;; *************** function _lcd_4bit_send_char *****************
  2324 ;; Defined at:
  2325 ;;		line 92 in file "ECU_layer/Char_lCD/ecu_chr_lcd.c"
  2326 ;; Parameters:    Size  Location     Type
  2327 ;;  lcd_obj         2   18[COMRAM] PTR const struct .
  2328 ;;		 -> lcd_1(6), 
  2329 ;;  chr             1   20[COMRAM] unsigned char 
  2330 ;; Auto vars:     Size  Location     Type
  2331 ;;  ret             1   21[COMRAM] unsigned char 
  2332 ;; Return value:  Size  Location     Type
  2333 ;;                  1    wreg      unsigned char 
  2334 ;; Registers used:
  2335 ;;		wreg, fsr2l, fsr2h, status,2, status,0, prodl, prodh, cstack
  2336 ;; Tracked objects:
  2337 ;;		On entry : 0/0
  2338 ;;		On exit  : 0/0
  2339 ;;		Unchanged: 0/0
  2340 ;; Data sizes:     COMRAM   BANK0   BANK1   BANK2   BANK3   BANK4   BANK5   BANK6   BANK7   BANK8   BANK9  BANK10  BANK1
      +1  BANK12  BANK13  BANK14  BANK15
  2341 ;;      Params:         3       0       0       0       0       0       0       0       0       0       0       0       
      +0       0       0       0       0
  2342 ;;      Locals:         1       0       0       0       0       0       0       0       0       0       0       0       
      +0       0       0       0       0
  2343 ;;      Temps:          0       0       0       0       0       0       0       0       0       0       0       0       
      +0       0       0       0       0
  2344 ;;      Totals:         4       0       0       0       0       0       0       0       0       0       0       0       
      +0       0       0       0       0
  2345 ;;Total ram usage:        4 bytes
  2346 ;; Hardware stack levels used: 1
  2347 ;; Hardware stack levels required when called: 2
  2348 ;; This function calls:
  2349 ;;		_gpio_pin_write_logic
  2350 ;;		_lcd_4bit_send_enable
  2351 ;;		_lcd_send_4bit
  2352 ;; This function is called by:
  2353 ;;		_lcd_4bit_send_char_pos
  2354 ;;		_lcd_4bit_send_string
  2355 ;;		_lcd_4bit_send_custome_chr
  2356 ;; This function uses a non-reentrant model
  2357 ;;
  2358                           
  2359                           	psect	text8
  2360   002080                     __ptext8:
  2361                           	callstack 0
  2362   002080                     _lcd_4bit_send_char:
  2363                           	callstack 25
  2364   002080                     
  2365                           ;ECU_layer/Char_lCD/ecu_chr_lcd.c: 95:     if(lcd_obj == ((void*)0))
  2366   002080  5044               	movf	lcd_4bit_send_char@lcd_obj^0,w,c
  2367   002082  1045               	iorwf	(lcd_4bit_send_char@lcd_obj+1)^0,w,c
  2368   002084  A4D8               	btfss	status,2,c
  2369   002086  EF47  F010         	goto	u1561
  2370   00208A  EF49  F010         	goto	u1560
  2371   00208E                     u1561:
  2372   00208E  EF4D  F010         	goto	l2690
  2373   002092                     u1560:
  2374   002092                     
  2375                           ;ECU_layer/Char_lCD/ecu_chr_lcd.c: 96:     {;ECU_layer/Char_lCD/ecu_chr_lcd.c: 97:      
      +                             ret = (Std_ReturnType)0x00;
  2376   002092  0E00               	movlw	0
  2377   002094  6E47               	movwf	lcd_4bit_send_char@ret^0,c
  2378                           
  2379                           ;ECU_layer/Char_lCD/ecu_chr_lcd.c: 98:     }
  2380   002096  EF79  F010         	goto	l2692
  2381   00209A                     l2690:
  2382                           
  2383                           ;ECU_layer/Char_lCD/ecu_chr_lcd.c: 100:     {;ECU_layer/Char_lCD/ecu_chr_lcd.c: 101:    
      +                               ret = gpio_pin_write_logic(&(lcd_obj->lcd_rs),GPIO_HIGH);
  2384   00209A  0E05               	movlw	5
  2385   00209C  2444               	addwf	lcd_4bit_send_char@lcd_obj^0,w,c
  2386   00209E  6E32               	movwf	gpio_pin_write_logic@pin^0,c
  2387   0020A0  0E00               	movlw	0
  2388   0020A2  2045               	addwfc	(lcd_4bit_send_char@lcd_obj+1)^0,w,c
  2389   0020A4  6E33               	movwf	(gpio_pin_write_logic@pin+1)^0,c
  2390   0020A6  0E01               	movlw	1
  2391   0020A8  6E34               	movwf	gpio_pin_write_logic@log^0,c
  2392   0020AA  ECFC  F00C         	call	_gpio_pin_write_logic	;wreg free
  2393   0020AE  6E47               	movwf	lcd_4bit_send_char@ret^0,c
  2394                           
  2395                           ;ECU_layer/Char_lCD/ecu_chr_lcd.c: 102:         ret = lcd_send_4bit(lcd_obj,(chr>>4));
  2396   0020B0  C044  F03C         	movff	lcd_4bit_send_char@lcd_obj,lcd_send_4bit@lcd_obj
  2397   0020B4  C045  F03D         	movff	lcd_4bit_send_char@lcd_obj+1,lcd_send_4bit@lcd_obj+1
  2398   0020B8  3846               	swapf	lcd_4bit_send_char@chr^0,w,c
  2399   0020BA  0B0F               	andlw	15
  2400   0020BC  6E3E               	movwf	lcd_send_4bit@data_command^0,c
  2401   0020BE  ECB6  F010         	call	_lcd_send_4bit	;wreg free
  2402   0020C2  6E47               	movwf	lcd_4bit_send_char@ret^0,c
  2403                           
  2404                           ;ECU_layer/Char_lCD/ecu_chr_lcd.c: 103:         ret = lcd_4bit_send_enable(lcd_obj);
  2405   0020C4  C044  F03C         	movff	lcd_4bit_send_char@lcd_obj,lcd_4bit_send_enable@lcd_obj
  2406   0020C8  C045  F03D         	movff	lcd_4bit_send_char@lcd_obj+1,lcd_4bit_send_enable@lcd_obj+1
  2407   0020CC  EC8C  F011         	call	_lcd_4bit_send_enable	;wreg free
  2408   0020D0  6E47               	movwf	lcd_4bit_send_char@ret^0,c
  2409                           
  2410                           ;ECU_layer/Char_lCD/ecu_chr_lcd.c: 104:         ret = lcd_send_4bit(lcd_obj,chr);
  2411   0020D2  C044  F03C         	movff	lcd_4bit_send_char@lcd_obj,lcd_send_4bit@lcd_obj
  2412   0020D6  C045  F03D         	movff	lcd_4bit_send_char@lcd_obj+1,lcd_send_4bit@lcd_obj+1
  2413   0020DA  C046  F03E         	movff	lcd_4bit_send_char@chr,lcd_send_4bit@data_command
  2414   0020DE  ECB6  F010         	call	_lcd_send_4bit	;wreg free
  2415   0020E2  6E47               	movwf	lcd_4bit_send_char@ret^0,c
  2416                           
  2417                           ;ECU_layer/Char_lCD/ecu_chr_lcd.c: 105:         ret = lcd_4bit_send_enable(lcd_obj);
  2418   0020E4  C044  F03C         	movff	lcd_4bit_send_char@lcd_obj,lcd_4bit_send_enable@lcd_obj
  2419   0020E8  C045  F03D         	movff	lcd_4bit_send_char@lcd_obj+1,lcd_4bit_send_enable@lcd_obj+1
  2420   0020EC  EC8C  F011         	call	_lcd_4bit_send_enable	;wreg free
  2421   0020F0  6E47               	movwf	lcd_4bit_send_char@ret^0,c
  2422   0020F2                     l2692:
  2423                           
  2424                           ;ECU_layer/Char_lCD/ecu_chr_lcd.c: 107:     return ret;
  2425   0020F2  5047               	movf	lcd_4bit_send_char@ret^0,w,c
  2426   0020F4  0012               	return		;funcret
  2427   0020F6                     __end_of_lcd_4bit_send_char:
  2428                           	callstack 0
  2429                           
  2430 ;; *************** function _led_turn_on *****************
  2431 ;; Defined at:
  2432 ;;		line 40 in file "ECU_layer/LED/ecu_led.c"
  2433 ;; Parameters:    Size  Location     Type
  2434 ;;  led             2   10[COMRAM] PTR const struct .
  2435 ;;		 -> led_2(1), led_1(1), 
  2436 ;; Auto vars:     Size  Location     Type
  2437 ;;  pin_obj         1   14[COMRAM] struct .
  2438 ;;  ret             1   13[COMRAM] unsigned char 
  2439 ;; Return value:  Size  Location     Type
  2440 ;;                  1    wreg      unsigned char 
  2441 ;; Registers used:
  2442 ;;		wreg, fsr2l, fsr2h, status,2, status,0, prodl, prodh, cstack
  2443 ;; Tracked objects:
  2444 ;;		On entry : 0/0
  2445 ;;		On exit  : 0/0
  2446 ;;		Unchanged: 0/0
  2447 ;; Data sizes:     COMRAM   BANK0   BANK1   BANK2   BANK3   BANK4   BANK5   BANK6   BANK7   BANK8   BANK9  BANK10  BANK1
      +1  BANK12  BANK13  BANK14  BANK15
  2448 ;;      Params:         2       0       0       0       0       0       0       0       0       0       0       0       
      +0       0       0       0       0
  2449 ;;      Locals:         2       0       0       0       0       0       0       0       0       0       0       0       
      +0       0       0       0       0
  2450 ;;      Temps:          1       0       0       0       0       0       0       0       0       0       0       0       
      +0       0       0       0       0
  2451 ;;      Totals:         5       0       0       0       0       0       0       0       0       0       0       0       
      +0       0       0       0       0
  2452 ;;Total ram usage:        5 bytes
  2453 ;; Hardware stack levels used: 1
  2454 ;; Hardware stack levels required when called: 1
  2455 ;; This function calls:
  2456 ;;		_gpio_pin_write_logic
  2457 ;; This function is called by:
  2458 ;;		_main
  2459 ;; This function uses a non-reentrant model
  2460 ;;
  2461                           
  2462                           	psect	text9
  2463   001E80                     __ptext9:
  2464                           	callstack 0
  2465   001E80                     _led_turn_on:
  2466                           	callstack 29
  2467   001E80                     
  2468                           ;ECU_layer/LED/ecu_led.c: 40: Std_ReturnType led_turn_on(const led_t *led);ECU_layer/LED
      +                          /ecu_led.c: 41: {;ECU_layer/LED/ecu_led.c: 42:     Std_ReturnType ret = (Std_ReturnType)
      +                          0x01;
  2469   001E80  0E01               	movlw	1
  2470   001E82  6E3F               	movwf	led_turn_on@ret^0,c
  2471   001E84                     
  2472                           ;ECU_layer/LED/ecu_led.c: 44:     if(led==((void*)0))
  2473   001E84  503C               	movf	led_turn_on@led^0,w,c
  2474   001E86  103D               	iorwf	(led_turn_on@led+1)^0,w,c
  2475   001E88  A4D8               	btfss	status,2,c
  2476   001E8A  EF49  F00F         	goto	u2051
  2477   001E8E  EF4B  F00F         	goto	u2050
  2478   001E92                     u2051:
  2479   001E92  EF4F  F00F         	goto	l291
  2480   001E96                     u2050:
  2481   001E96                     
  2482                           ;ECU_layer/LED/ecu_led.c: 45:     {;ECU_layer/LED/ecu_led.c: 46:         ret = (Std_Retu
      +                          rnType)0x00;
  2483   001E96  0E00               	movlw	0
  2484   001E98  6E3F               	movwf	led_turn_on@ret^0,c
  2485                           
  2486                           ;ECU_layer/LED/ecu_led.c: 47:     }
  2487   001E9A  EF80  F00F         	goto	l3158
  2488   001E9E                     l291:
  2489                           
  2490                           ;ECU_layer/LED/ecu_led.c: 49:     {;ECU_layer/LED/ecu_led.c: 50:         pin_config pin_
      +                          obj = {
  2491   001E9E  C065  F040         	movff	led_turn_on@F3055,led_turn_on@pin_obj
  2492   001EA2  C03C  FFD9         	movff	led_turn_on@led,fsr2l
  2493   001EA6  C03D  FFDA         	movff	led_turn_on@led+1,fsr2h
  2494   001EAA  50DF               	movf	223,w,c
  2495   001EAC  0B07               	andlw	7
  2496   001EAE  6E3E               	movwf	??_led_turn_on^0,c
  2497   001EB0  5040               	movf	led_turn_on@pin_obj^0,w,c
  2498   001EB2  183E               	xorwf	??_led_turn_on^0,w,c
  2499   001EB4  0BF8               	andlw	-8
  2500   001EB6  183E               	xorwf	??_led_turn_on^0,w,c
  2501   001EB8  6E40               	movwf	led_turn_on@pin_obj^0,c
  2502   001EBA  C03C  FFD9         	movff	led_turn_on@led,fsr2l
  2503   001EBE  C03D  FFDA         	movff	led_turn_on@led+1,fsr2h
  2504   001EC2  30DF               	rrcf	223,w,c
  2505   001EC4  32E8               	rrcf	wreg,f,c
  2506   001EC6  32E8               	rrcf	wreg,f,c
  2507   001EC8  0B07               	andlw	7
  2508   001ECA  6E3E               	movwf	??_led_turn_on^0,c
  2509   001ECC  463E               	rlncf	??_led_turn_on^0,f,c
  2510   001ECE  463E               	rlncf	??_led_turn_on^0,f,c
  2511   001ED0  463E               	rlncf	??_led_turn_on^0,f,c
  2512   001ED2  5040               	movf	led_turn_on@pin_obj^0,w,c
  2513   001ED4  183E               	xorwf	??_led_turn_on^0,w,c
  2514   001ED6  0BC7               	andlw	-57
  2515   001ED8  183E               	xorwf	??_led_turn_on^0,w,c
  2516   001EDA  6E40               	movwf	led_turn_on@pin_obj^0,c
  2517   001EDC  9C40               	bcf	led_turn_on@pin_obj^0,6,c
  2518   001EDE  C03C  FFD9         	movff	led_turn_on@led,fsr2l
  2519   001EE2  C03D  FFDA         	movff	led_turn_on@led+1,fsr2h
  2520   001EE6  ACDF               	btfss	indf2,6,c
  2521   001EE8  D002               	bra	u2065
  2522   001EEA  8E40               	bsf	led_turn_on@pin_obj^0,7,c
  2523   001EEC  D001               	bra	u2067
  2524   001EEE                     u2065:
  2525   001EEE  9E40               	bcf	led_turn_on@pin_obj^0,7,c
  2526   001EF0                     u2067:
  2527   001EF0                     
  2528                           ;ECU_layer/LED/ecu_led.c: 56:         gpio_pin_write_logic(&pin_obj,GPIO_HIGH);
  2529   001EF0  0E40               	movlw	low led_turn_on@pin_obj
  2530   001EF2  6E32               	movwf	gpio_pin_write_logic@pin^0,c
  2531   001EF4  0E00               	movlw	high led_turn_on@pin_obj
  2532   001EF6  6E33               	movwf	(gpio_pin_write_logic@pin+1)^0,c
  2533   001EF8  0E01               	movlw	1
  2534   001EFA  6E34               	movwf	gpio_pin_write_logic@log^0,c
  2535   001EFC  ECFC  F00C         	call	_gpio_pin_write_logic	;wreg free
  2536   001F00                     l3158:
  2537                           
  2538                           ;ECU_layer/LED/ecu_led.c: 58:     return ret;
  2539   001F00  503F               	movf	led_turn_on@ret^0,w,c
  2540   001F02  0012               	return		;funcret
  2541   001F04                     __end_of_led_turn_on:
  2542                           	callstack 0
  2543                           
  2544 ;; *************** function _led_turn_off *****************
  2545 ;; Defined at:
  2546 ;;		line 69 in file "ECU_layer/LED/ecu_led.c"
  2547 ;; Parameters:    Size  Location     Type
  2548 ;;  led             2   10[COMRAM] PTR const struct .
  2549 ;;		 -> led_2(1), led_1(1), 
  2550 ;; Auto vars:     Size  Location     Type
  2551 ;;  pin_obj         1   14[COMRAM] struct .
  2552 ;;  ret             1   13[COMRAM] unsigned char 
  2553 ;; Return value:  Size  Location     Type
  2554 ;;                  1    wreg      unsigned char 
  2555 ;; Registers used:
  2556 ;;		wreg, fsr2l, fsr2h, status,2, status,0, prodl, prodh, cstack
  2557 ;; Tracked objects:
  2558 ;;		On entry : 0/0
  2559 ;;		On exit  : 0/0
  2560 ;;		Unchanged: 0/0
  2561 ;; Data sizes:     COMRAM   BANK0   BANK1   BANK2   BANK3   BANK4   BANK5   BANK6   BANK7   BANK8   BANK9  BANK10  BANK1
      +1  BANK12  BANK13  BANK14  BANK15
  2562 ;;      Params:         2       0       0       0       0       0       0       0       0       0       0       0       
      +0       0       0       0       0
  2563 ;;      Locals:         2       0       0       0       0       0       0       0       0       0       0       0       
      +0       0       0       0       0
  2564 ;;      Temps:          1       0       0       0       0       0       0       0       0       0       0       0       
      +0       0       0       0       0
  2565 ;;      Totals:         5       0       0       0       0       0       0       0       0       0       0       0       
      +0       0       0       0       0
  2566 ;;Total ram usage:        5 bytes
  2567 ;; Hardware stack levels used: 1
  2568 ;; Hardware stack levels required when called: 1
  2569 ;; This function calls:
  2570 ;;		_gpio_pin_write_logic
  2571 ;; This function is called by:
  2572 ;;		_main
  2573 ;; This function uses a non-reentrant model
  2574 ;;
  2575                           
  2576                           	psect	text10
  2577   001F04                     __ptext10:
  2578                           	callstack 0
  2579   001F04                     _led_turn_off:
  2580                           	callstack 29
  2581   001F04                     
  2582                           ;ECU_layer/LED/ecu_led.c: 69: Std_ReturnType led_turn_off(const led_t *led);ECU_layer/LE
      +                          D/ecu_led.c: 70: {;ECU_layer/LED/ecu_led.c: 71:     Std_ReturnType ret = (Std_ReturnType
      +                          )0x01;
  2583   001F04  0E01               	movlw	1
  2584   001F06  6E3F               	movwf	led_turn_off@ret^0,c
  2585   001F08                     
  2586                           ;ECU_layer/LED/ecu_led.c: 72:     if(led==((void*)0))
  2587   001F08  503C               	movf	led_turn_off@led^0,w,c
  2588   001F0A  103D               	iorwf	(led_turn_off@led+1)^0,w,c
  2589   001F0C  A4D8               	btfss	status,2,c
  2590   001F0E  EF8B  F00F         	goto	u2071
  2591   001F12  EF8D  F00F         	goto	u2070
  2592   001F16                     u2071:
  2593   001F16  EF91  F00F         	goto	l298
  2594   001F1A                     u2070:
  2595   001F1A                     
  2596                           ;ECU_layer/LED/ecu_led.c: 73:     {;ECU_layer/LED/ecu_led.c: 75:         ret = (Std_Retu
      +                          rnType)0x00;
  2597   001F1A  0E00               	movlw	0
  2598   001F1C  6E3F               	movwf	led_turn_off@ret^0,c
  2599                           
  2600                           ;ECU_layer/LED/ecu_led.c: 76:     }
  2601   001F1E  EFC2  F00F         	goto	l3176
  2602   001F22                     l298:
  2603                           
  2604                           ;ECU_layer/LED/ecu_led.c: 78:     {;ECU_layer/LED/ecu_led.c: 79:         pin_config pin_
      +                          obj = {
  2605   001F22  C064  F040         	movff	led_turn_off@F3060,led_turn_off@pin_obj
  2606   001F26  C03C  FFD9         	movff	led_turn_off@led,fsr2l
  2607   001F2A  C03D  FFDA         	movff	led_turn_off@led+1,fsr2h
  2608   001F2E  50DF               	movf	223,w,c
  2609   001F30  0B07               	andlw	7
  2610   001F32  6E3E               	movwf	??_led_turn_off^0,c
  2611   001F34  5040               	movf	led_turn_off@pin_obj^0,w,c
  2612   001F36  183E               	xorwf	??_led_turn_off^0,w,c
  2613   001F38  0BF8               	andlw	-8
  2614   001F3A  183E               	xorwf	??_led_turn_off^0,w,c
  2615   001F3C  6E40               	movwf	led_turn_off@pin_obj^0,c
  2616   001F3E  C03C  FFD9         	movff	led_turn_off@led,fsr2l
  2617   001F42  C03D  FFDA         	movff	led_turn_off@led+1,fsr2h
  2618   001F46  30DF               	rrcf	223,w,c
  2619   001F48  32E8               	rrcf	wreg,f,c
  2620   001F4A  32E8               	rrcf	wreg,f,c
  2621   001F4C  0B07               	andlw	7
  2622   001F4E  6E3E               	movwf	??_led_turn_off^0,c
  2623   001F50  463E               	rlncf	??_led_turn_off^0,f,c
  2624   001F52  463E               	rlncf	??_led_turn_off^0,f,c
  2625   001F54  463E               	rlncf	??_led_turn_off^0,f,c
  2626   001F56  5040               	movf	led_turn_off@pin_obj^0,w,c
  2627   001F58  183E               	xorwf	??_led_turn_off^0,w,c
  2628   001F5A  0BC7               	andlw	-57
  2629   001F5C  183E               	xorwf	??_led_turn_off^0,w,c
  2630   001F5E  6E40               	movwf	led_turn_off@pin_obj^0,c
  2631   001F60  9C40               	bcf	led_turn_off@pin_obj^0,6,c
  2632   001F62  C03C  FFD9         	movff	led_turn_off@led,fsr2l
  2633   001F66  C03D  FFDA         	movff	led_turn_off@led+1,fsr2h
  2634   001F6A  ACDF               	btfss	indf2,6,c
  2635   001F6C  D002               	bra	u2085
  2636   001F6E  8E40               	bsf	led_turn_off@pin_obj^0,7,c
  2637   001F70  D001               	bra	u2087
  2638   001F72                     u2085:
  2639   001F72  9E40               	bcf	led_turn_off@pin_obj^0,7,c
  2640   001F74                     u2087:
  2641   001F74                     
  2642                           ;ECU_layer/LED/ecu_led.c: 85:         gpio_pin_write_logic(&pin_obj,GPIO_LOW);
  2643   001F74  0E40               	movlw	low led_turn_off@pin_obj
  2644   001F76  6E32               	movwf	gpio_pin_write_logic@pin^0,c
  2645   001F78  0E00               	movlw	high led_turn_off@pin_obj
  2646   001F7A  6E33               	movwf	(gpio_pin_write_logic@pin+1)^0,c
  2647   001F7C  0E00               	movlw	0
  2648   001F7E  6E34               	movwf	gpio_pin_write_logic@log^0,c
  2649   001F80  ECFC  F00C         	call	_gpio_pin_write_logic	;wreg free
  2650   001F84                     l3176:
  2651                           
  2652                           ;ECU_layer/LED/ecu_led.c: 87:     return ret;
  2653   001F84  503F               	movf	led_turn_off@ret^0,w,c
  2654   001F86  0012               	return		;funcret
  2655   001F88                     __end_of_led_turn_off:
  2656                           	callstack 0
  2657                           
  2658 ;; *************** function _keypad_get_value *****************
  2659 ;; Defined at:
  2660 ;;		line 58 in file "ECU_layer/key_pad/ecu_key_pad.c"
  2661 ;; Parameters:    Size  Location     Type
  2662 ;;  keypad          2   10[COMRAM] PTR const struct .
  2663 ;;		 -> kp1(7), 
  2664 ;;  value           2   12[COMRAM] PTR unsigned char 
  2665 ;;		 -> value(1), 
  2666 ;; Auto vars:     Size  Location     Type
  2667 ;;  coulmn_count    1   20[COMRAM] unsigned char 
  2668 ;;  row_counter     1   19[COMRAM] unsigned char 
  2669 ;;  counter         1   18[COMRAM] unsigned char 
  2670 ;;  log             1   17[COMRAM] enum E2986
  2671 ;;  ret             1   16[COMRAM] unsigned char 
  2672 ;; Return value:  Size  Location     Type
  2673 ;;                  1    wreg      unsigned char 
  2674 ;; Registers used:
  2675 ;;		wreg, fsr2l, fsr2h, status,2, status,0, tblptrl, tblptrh, tblptru, prodl, prodh, cstack
  2676 ;; Tracked objects:
  2677 ;;		On entry : 0/0
  2678 ;;		On exit  : 0/0
  2679 ;;		Unchanged: 0/0
  2680 ;; Data sizes:     COMRAM   BANK0   BANK1   BANK2   BANK3   BANK4   BANK5   BANK6   BANK7   BANK8   BANK9  BANK10  BANK1
      +1  BANK12  BANK13  BANK14  BANK15
  2681 ;;      Params:         4       0       0       0       0       0       0       0       0       0       0       0       
      +0       0       0       0       0
  2682 ;;      Locals:         5       0       0       0       0       0       0       0       0       0       0       0       
      +0       0       0       0       0
  2683 ;;      Temps:          2       0       0       0       0       0       0       0       0       0       0       0       
      +0       0       0       0       0
  2684 ;;      Totals:        11       0       0       0       0       0       0       0       0       0       0       0       
      +0       0       0       0       0
  2685 ;;Total ram usage:       11 bytes
  2686 ;; Hardware stack levels used: 1
  2687 ;; Hardware stack levels required when called: 1
  2688 ;; This function calls:
  2689 ;;		_gpio_pin_read_logic
  2690 ;;		_gpio_pin_write_logic
  2691 ;; This function is called by:
  2692 ;;		_main
  2693 ;; This function uses a non-reentrant model
  2694 ;;
  2695                           
  2696                           	psect	text11
  2697   001B24                     __ptext11:
  2698                           	callstack 0
  2699   001B24                     _keypad_get_value:
  2700                           	callstack 29
  2701   001B24                     
  2702                           ;ECU_layer/key_pad/ecu_key_pad.c: 61:     logic_t log = GPIO_LOW;
  2703   001B24  0E00               	movlw	0
  2704   001B26  6E43               	movwf	keypad_get_value@log^0,c
  2705                           
  2706                           ;ECU_layer/key_pad/ecu_key_pad.c: 62:     uint8 row_counter=0,counter=0,coulmn_counter=0
      +                          ;
  2707   001B28  0E00               	movlw	0
  2708   001B2A  6E45               	movwf	keypad_get_value@row_counter^0,c
  2709   001B2C  0E00               	movlw	0
  2710   001B2E  6E44               	movwf	keypad_get_value@counter^0,c
  2711   001B30  0E00               	movlw	0
  2712   001B32  6E46               	movwf	keypad_get_value@coulmn_counter^0,c
  2713   001B34                     
  2714                           ;ECU_layer/key_pad/ecu_key_pad.c: 63:     if((keypad==((void*)0))||(value==((void*)0)))
  2715   001B34  503C               	movf	keypad_get_value@keypad^0,w,c
  2716   001B36  103D               	iorwf	(keypad_get_value@keypad+1)^0,w,c
  2717   001B38  B4D8               	btfsc	status,2,c
  2718   001B3A  EFA1  F00D         	goto	u1991
  2719   001B3E  EFA3  F00D         	goto	u1990
  2720   001B42                     u1991:
  2721   001B42  EFAC  F00D         	goto	l3098
  2722   001B46                     u1990:
  2723   001B46  503E               	movf	keypad_get_value@value^0,w,c
  2724   001B48  103F               	iorwf	(keypad_get_value@value+1)^0,w,c
  2725   001B4A  A4D8               	btfss	status,2,c
  2726   001B4C  EFAA  F00D         	goto	u2001
  2727   001B50  EFAC  F00D         	goto	u2000
  2728   001B54                     u2001:
  2729   001B54  EFB0  F00D         	goto	l3100
  2730   001B58                     u2000:
  2731   001B58                     l3098:
  2732                           
  2733                           ;ECU_layer/key_pad/ecu_key_pad.c: 64:     {;ECU_layer/key_pad/ecu_key_pad.c: 65:        
      +                           ret = (Std_ReturnType)0x00;
  2734   001B58  0E00               	movlw	0
  2735   001B5A  6E42               	movwf	keypad_get_value@ret^0,c
  2736                           
  2737                           ;ECU_layer/key_pad/ecu_key_pad.c: 66:     }
  2738   001B5C  EF17  F00E         	goto	l3140
  2739   001B60                     l3100:
  2740                           
  2741                           ;ECU_layer/key_pad/ecu_key_pad.c: 68:     {;ECU_layer/key_pad/ecu_key_pad.c: 69:        
      +                           for(row_counter=0;row_counter<4;row_counter++)
  2742   001B60  0E00               	movlw	0
  2743   001B62  6E45               	movwf	keypad_get_value@row_counter^0,c
  2744   001B64                     l3106:
  2745                           
  2746                           ;ECU_layer/key_pad/ecu_key_pad.c: 70:         {;ECU_layer/key_pad/ecu_key_pad.c: 71:    
      +                                   for(counter=0;counter<4;counter++)
  2747   001B64  0E00               	movlw	0
  2748   001B66  6E44               	movwf	keypad_get_value@counter^0,c
  2749   001B68                     l3112:
  2750   001B68  5044               	movf	keypad_get_value@counter^0,w,c
  2751   001B6A  243C               	addwf	keypad_get_value@keypad^0,w,c
  2752   001B6C  6E32               	movwf	gpio_pin_write_logic@pin^0,c
  2753   001B6E  0E00               	movlw	0
  2754   001B70  203D               	addwfc	(keypad_get_value@keypad+1)^0,w,c
  2755   001B72  6E33               	movwf	(gpio_pin_write_logic@pin+1)^0,c
  2756   001B74  0E00               	movlw	0
  2757   001B76  6E34               	movwf	gpio_pin_write_logic@log^0,c
  2758   001B78  ECFC  F00C         	call	_gpio_pin_write_logic	;wreg free
  2759   001B7C                     
  2760                           ;ECU_layer/key_pad/ecu_key_pad.c: 74:             }
  2761   001B7C  2A44               	incf	keypad_get_value@counter^0,f,c
  2762   001B7E  0E03               	movlw	3
  2763   001B80  6444               	cpfsgt	keypad_get_value@counter^0,c
  2764   001B82  EFC5  F00D         	goto	u2011
  2765   001B86  EFC7  F00D         	goto	u2010
  2766   001B8A                     u2011:
  2767   001B8A  EFB4  F00D         	goto	l3112
  2768   001B8E                     u2010:
  2769   001B8E  5045               	movf	keypad_get_value@row_counter^0,w,c
  2770   001B90  243C               	addwf	keypad_get_value@keypad^0,w,c
  2771   001B92  6E32               	movwf	gpio_pin_write_logic@pin^0,c
  2772   001B94  0E00               	movlw	0
  2773   001B96  203D               	addwfc	(keypad_get_value@keypad+1)^0,w,c
  2774   001B98  6E33               	movwf	(gpio_pin_write_logic@pin+1)^0,c
  2775   001B9A  0E01               	movlw	1
  2776   001B9C  6E34               	movwf	gpio_pin_write_logic@log^0,c
  2777   001B9E  ECFC  F00C         	call	_gpio_pin_write_logic	;wreg free
  2778   001BA2                     
  2779                           ;ECU_layer/key_pad/ecu_key_pad.c: 76:             for(coulmn_counter=0;coulmn_counter<3;
      +                          coulmn_counter++)
  2780   001BA2  0E00               	movlw	0
  2781   001BA4  6E46               	movwf	keypad_get_value@coulmn_counter^0,c
  2782   001BA6                     l3126:
  2783                           
  2784                           ;ECU_layer/key_pad/ecu_key_pad.c: 77:             {;ECU_layer/key_pad/ecu_key_pad.c: 78:
      +                                           ret = gpio_pin_read_logic(&(keypad->keypad_coulmns_pins[coulmn_counter]
      +                          ),&log);
  2785   001BA6  5046               	movf	keypad_get_value@coulmn_counter^0,w,c
  2786   001BA8  243C               	addwf	keypad_get_value@keypad^0,w,c
  2787   001BAA  6E40               	movwf	??_keypad_get_value^0,c
  2788   001BAC  0E00               	movlw	0
  2789   001BAE  203D               	addwfc	(keypad_get_value@keypad+1)^0,w,c
  2790   001BB0  6E41               	movwf	(??_keypad_get_value+1)^0,c
  2791   001BB2  0E04               	movlw	4
  2792   001BB4  2440               	addwf	??_keypad_get_value^0,w,c
  2793   001BB6  6E32               	movwf	gpio_pin_read_logic@pin^0,c
  2794   001BB8  0E00               	movlw	0
  2795   001BBA  2041               	addwfc	(??_keypad_get_value+1)^0,w,c
  2796   001BBC  6E33               	movwf	(gpio_pin_read_logic@pin+1)^0,c
  2797   001BBE  0E43               	movlw	low keypad_get_value@log
  2798   001BC0  6E34               	movwf	gpio_pin_read_logic@log^0,c
  2799   001BC2  0E00               	movlw	high keypad_get_value@log
  2800   001BC4  6E35               	movwf	(gpio_pin_read_logic@log+1)^0,c
  2801   001BC6  ECE4  F00E         	call	_gpio_pin_read_logic	;wreg free
  2802   001BCA  6E42               	movwf	keypad_get_value@ret^0,c
  2803   001BCC                     
  2804                           ;ECU_layer/key_pad/ecu_key_pad.c: 79:                 if(log == GPIO_HIGH)
  2805   001BCC  0443               	decf	keypad_get_value@log^0,w,c
  2806   001BCE  A4D8               	btfss	status,2,c
  2807   001BD0  EFEC  F00D         	goto	u2021
  2808   001BD4  EFEE  F00D         	goto	u2020
  2809   001BD8                     u2021:
  2810   001BD8  EF05  F00E         	goto	l3132
  2811   001BDC                     u2020:
  2812   001BDC                     
  2813                           ;ECU_layer/key_pad/ecu_key_pad.c: 80:                 {;ECU_layer/key_pad/ecu_key_pad.c:
      +                           81:                     *value = btn_values [row_counter][coulmn_counter];
  2814   001BDC  5045               	movf	keypad_get_value@row_counter^0,w,c
  2815   001BDE  0D03               	mullw	3
  2816   001BE0  0E01               	movlw	low _btn_values
  2817   001BE2  24F3               	addwf	243,w,c
  2818   001BE4  6E40               	movwf	??_keypad_get_value^0,c
  2819   001BE6  0E10               	movlw	high _btn_values
  2820   001BE8  20F4               	addwfc	prodh,w,c
  2821   001BEA  6E41               	movwf	(??_keypad_get_value+1)^0,c
  2822   001BEC  5046               	movf	keypad_get_value@coulmn_counter^0,w,c
  2823   001BEE  2640               	addwf	??_keypad_get_value^0,f,c
  2824   001BF0  0E00               	movlw	0
  2825   001BF2  2241               	addwfc	(??_keypad_get_value+1)^0,f,c
  2826   001BF4  C040  FFF6         	movff	??_keypad_get_value,tblptrl
  2827   001BF8  C041  FFF7         	movff	??_keypad_get_value+1,tblptrh
  2828   001BFC                     	if	0	;tblptru may be non-zero
  2829   001BFC                     	endif
  2830   001BFC                     	if	0	;tblptru may be non-zero
  2831   001BFC                     	endif
  2832   001BFC  C03E  FFD9         	movff	keypad_get_value@value,fsr2l
  2833   001C00  C03F  FFDA         	movff	keypad_get_value@value+1,fsr2h
  2834   001C04  0008               	tblrd		*
  2835   001C06  CFF5 FFDF          	movff	tablat,indf2
  2836   001C0A                     l3132:
  2837                           
  2838                           ;ECU_layer/key_pad/ecu_key_pad.c: 84:             }
  2839   001C0A  2A46               	incf	keypad_get_value@coulmn_counter^0,f,c
  2840   001C0C  0E02               	movlw	2
  2841   001C0E  6446               	cpfsgt	keypad_get_value@coulmn_counter^0,c
  2842   001C10  EF0C  F00E         	goto	u2031
  2843   001C14  EF0E  F00E         	goto	u2030
  2844   001C18                     u2031:
  2845   001C18  EFD3  F00D         	goto	l3126
  2846   001C1C                     u2030:
  2847   001C1C                     
  2848                           ;ECU_layer/key_pad/ecu_key_pad.c: 85:         }
  2849   001C1C  2A45               	incf	keypad_get_value@row_counter^0,f,c
  2850   001C1E  0E03               	movlw	3
  2851   001C20  6445               	cpfsgt	keypad_get_value@row_counter^0,c
  2852   001C22  EF15  F00E         	goto	u2041
  2853   001C26  EF17  F00E         	goto	u2040
  2854   001C2A                     u2041:
  2855   001C2A  EFB2  F00D         	goto	l3106
  2856   001C2E                     u2040:
  2857   001C2E                     l3140:
  2858                           
  2859                           ;ECU_layer/key_pad/ecu_key_pad.c: 87:      return ret;
  2860   001C2E  5042               	movf	keypad_get_value@ret^0,w,c
  2861   001C30  0012               	return		;funcret
  2862   001C32                     __end_of_keypad_get_value:
  2863                           	callstack 0
  2864                           
  2865 ;; *************** function _gpio_pin_read_logic *****************
  2866 ;; Defined at:
  2867 ;;		line 75 in file "MCAL_layer/GPIO/hal_gpio.c"
  2868 ;; Parameters:    Size  Location     Type
  2869 ;;  pin             2    0[COMRAM] PTR const struct .
  2870 ;;		 -> kp1.keypad_coulmns_pins(3), kp1(7), 
  2871 ;;  log             2    2[COMRAM] PTR enum E2986
  2872 ;;		 -> push_button_read@btn_l(1), keypad_get_value@log(1), 
  2873 ;; Auto vars:     Size  Location     Type
  2874 ;;  ret             1    9[COMRAM] unsigned char 
  2875 ;; Return value:  Size  Location     Type
  2876 ;;                  1    wreg      unsigned char 
  2877 ;; Registers used:
  2878 ;;		wreg, fsr2l, fsr2h, status,2, status,0, prodl, prodh
  2879 ;; Tracked objects:
  2880 ;;		On entry : 0/0
  2881 ;;		On exit  : 0/0
  2882 ;;		Unchanged: 0/0
  2883 ;; Data sizes:     COMRAM   BANK0   BANK1   BANK2   BANK3   BANK4   BANK5   BANK6   BANK7   BANK8   BANK9  BANK10  BANK1
      +1  BANK12  BANK13  BANK14  BANK15
  2884 ;;      Params:         4       0       0       0       0       0       0       0       0       0       0       0       
      +0       0       0       0       0
  2885 ;;      Locals:         1       0       0       0       0       0       0       0       0       0       0       0       
      +0       0       0       0       0
  2886 ;;      Temps:          5       0       0       0       0       0       0       0       0       0       0       0       
      +0       0       0       0       0
  2887 ;;      Totals:        10       0       0       0       0       0       0       0       0       0       0       0       
      +0       0       0       0       0
  2888 ;;Total ram usage:       10 bytes
  2889 ;; Hardware stack levels used: 1
  2890 ;; This function calls:
  2891 ;;		Nothing
  2892 ;; This function is called by:
  2893 ;;		_keypad_get_value
  2894 ;;		_push_button_read
  2895 ;; This function uses a non-reentrant model
  2896 ;;
  2897                           
  2898                           	psect	text12
  2899   001DC8                     __ptext12:
  2900                           	callstack 0
  2901   001DC8                     _gpio_pin_read_logic:
  2902                           	callstack 29
  2903   001DC8                     
  2904                           ;MCAL_layer/GPIO/hal_gpio.c: 75: Std_ReturnType gpio_pin_read_logic(const pin_config *pi
      +                          n,logic_t *log);MCAL_layer/GPIO/hal_gpio.c: 76: {;MCAL_layer/GPIO/hal_gpio.c: 77:     St
      +                          d_ReturnType ret = (Std_ReturnType)0x01;
  2905   001DC8  0E01               	movlw	1
  2906   001DCA  6E3B               	movwf	gpio_pin_read_logic@ret^0,c
  2907   001DCC                     
  2908                           ;MCAL_layer/GPIO/hal_gpio.c: 78:     if((pin==((void*)0))||(pin->pin>=8)||(log==((void*)
      +                          0)))
  2909   001DCC  5032               	movf	gpio_pin_read_logic@pin^0,w,c
  2910   001DCE  1033               	iorwf	(gpio_pin_read_logic@pin+1)^0,w,c
  2911   001DD0  B4D8               	btfsc	status,2,c
  2912   001DD2  EFED  F00E         	goto	u1761
  2913   001DD6  EFEF  F00E         	goto	u1760
  2914   001DDA                     u1761:
  2915   001DDA  EF09  F00F         	goto	l2926
  2916   001DDE                     u1760:
  2917   001DDE  C032  FFD9         	movff	gpio_pin_read_logic@pin,fsr2l
  2918   001DE2  C033  FFDA         	movff	gpio_pin_read_logic@pin+1,fsr2h
  2919   001DE6  30DF               	rrcf	223,w,c
  2920   001DE8  32E8               	rrcf	wreg,f,c
  2921   001DEA  32E8               	rrcf	wreg,f,c
  2922   001DEC  0B07               	andlw	7
  2923   001DEE  6E36               	movwf	??_gpio_pin_read_logic^0,c
  2924   001DF0  0E08               	movlw	8
  2925   001DF2  6036               	cpfslt	??_gpio_pin_read_logic^0,c
  2926   001DF4  EFFE  F00E         	goto	u1771
  2927   001DF8  EF00  F00F         	goto	u1770
  2928   001DFC                     u1771:
  2929   001DFC  EF09  F00F         	goto	l2926
  2930   001E00                     u1770:
  2931   001E00  5034               	movf	gpio_pin_read_logic@log^0,w,c
  2932   001E02  1035               	iorwf	(gpio_pin_read_logic@log+1)^0,w,c
  2933   001E04  A4D8               	btfss	status,2,c
  2934   001E06  EF07  F00F         	goto	u1781
  2935   001E0A  EF09  F00F         	goto	u1780
  2936   001E0E                     u1781:
  2937   001E0E  EF0D  F00F         	goto	l2928
  2938   001E12                     u1780:
  2939   001E12                     l2926:
  2940                           
  2941                           ;MCAL_layer/GPIO/hal_gpio.c: 79:     {;MCAL_layer/GPIO/hal_gpio.c: 80:         ret = (St
      +                          d_ReturnType)0x00;
  2942   001E12  0E00               	movlw	0
  2943   001E14  6E3B               	movwf	gpio_pin_read_logic@ret^0,c
  2944                           
  2945                           ;MCAL_layer/GPIO/hal_gpio.c: 81:     }
  2946   001E16  EF3E  F00F         	goto	l2930
  2947   001E1A                     l2928:
  2948                           
  2949                           ;MCAL_layer/GPIO/hal_gpio.c: 83:     {;MCAL_layer/GPIO/hal_gpio.c: 84:         *log = ((
      +                          *port_registers[pin->port] >> pin->pin) & (uint8)1);
  2950   001E1A  C032  FFD9         	movff	gpio_pin_read_logic@pin,fsr2l
  2951   001E1E  C033  FFDA         	movff	gpio_pin_read_logic@pin+1,fsr2h
  2952   001E22  30DF               	rrcf	223,w,c
  2953   001E24  32E8               	rrcf	wreg,f,c
  2954   001E26  32E8               	rrcf	wreg,f,c
  2955   001E28  0B07               	andlw	7
  2956   001E2A  6E36               	movwf	??_gpio_pin_read_logic^0,c
  2957   001E2C  C032  FFD9         	movff	gpio_pin_read_logic@pin,fsr2l
  2958   001E30  C033  FFDA         	movff	gpio_pin_read_logic@pin+1,fsr2h
  2959   001E34  50DF               	movf	223,w,c
  2960   001E36  0B07               	andlw	7
  2961   001E38  6E37               	movwf	(??_gpio_pin_read_logic+1)^0,c
  2962   001E3A  5037               	movf	(??_gpio_pin_read_logic+1)^0,w,c
  2963   001E3C  0D02               	mullw	2
  2964   001E3E  0E0B               	movlw	low _port_registers
  2965   001E40  24F3               	addwf	243,w,c
  2966   001E42  6ED9               	movwf	fsr2l,c
  2967   001E44  0E00               	movlw	high _port_registers
  2968   001E46  20F4               	addwfc	prodh,w,c
  2969   001E48  6EDA               	movwf	fsr2h,c
  2970   001E4A  CFDE F038          	movff	postinc2,??_gpio_pin_read_logic+2
  2971   001E4E  CFDD F039          	movff	postdec2,??_gpio_pin_read_logic+3
  2972   001E52  C038  FFD9         	movff	??_gpio_pin_read_logic+2,fsr2l
  2973   001E56  C039  FFDA         	movff	??_gpio_pin_read_logic+3,fsr2h
  2974   001E5A  50DF               	movf	indf2,w,c
  2975   001E5C  6E3A               	movwf	(??_gpio_pin_read_logic+4)^0,c
  2976   001E5E  2A36               	incf	??_gpio_pin_read_logic^0,f,c
  2977   001E60  EF34  F00F         	goto	u1794
  2978   001E64                     u1795:
  2979   001E64  90D8               	bcf	status,0,c
  2980   001E66  323A               	rrcf	(??_gpio_pin_read_logic+4)^0,f,c
  2981   001E68                     u1794:
  2982   001E68  2E36               	decfsz	??_gpio_pin_read_logic^0,f,c
  2983   001E6A  EF32  F00F         	goto	u1795
  2984   001E6E  503A               	movf	(??_gpio_pin_read_logic+4)^0,w,c
  2985   001E70  0B01               	andlw	1
  2986   001E72  C034  FFD9         	movff	gpio_pin_read_logic@log,fsr2l
  2987   001E76  C035  FFDA         	movff	gpio_pin_read_logic@log+1,fsr2h
  2988   001E7A  6EDF               	movwf	indf2,c
  2989   001E7C                     l2930:
  2990                           
  2991                           ;MCAL_layer/GPIO/hal_gpio.c: 86:      return ret;
  2992   001E7C  503B               	movf	gpio_pin_read_logic@ret^0,w,c
  2993   001E7E  0012               	return		;funcret
  2994   001E80                     __end_of_gpio_pin_read_logic:
  2995                           	callstack 0
  2996                           
  2997 ;; *************** function _dc_motor_stop *****************
  2998 ;; Defined at:
  2999 ;;		line 92 in file "ECU_layer/DC_Motor/ecu_Dc_motor.c"
  3000 ;; Parameters:    Size  Location     Type
  3001 ;;  dc_motor        2   10[COMRAM] PTR const struct .
  3002 ;;		 -> motor_1(2), 
  3003 ;; Auto vars:     Size  Location     Type
  3004 ;;  ret             1   12[COMRAM] unsigned char 
  3005 ;; Return value:  Size  Location     Type
  3006 ;;                  1    wreg      unsigned char 
  3007 ;; Registers used:
  3008 ;;		wreg, fsr2l, fsr2h, status,2, status,0, prodl, prodh, cstack
  3009 ;; Tracked objects:
  3010 ;;		On entry : 0/0
  3011 ;;		On exit  : 0/0
  3012 ;;		Unchanged: 0/0
  3013 ;; Data sizes:     COMRAM   BANK0   BANK1   BANK2   BANK3   BANK4   BANK5   BANK6   BANK7   BANK8   BANK9  BANK10  BANK1
      +1  BANK12  BANK13  BANK14  BANK15
  3014 ;;      Params:         2       0       0       0       0       0       0       0       0       0       0       0       
      +0       0       0       0       0
  3015 ;;      Locals:         1       0       0       0       0       0       0       0       0       0       0       0       
      +0       0       0       0       0
  3016 ;;      Temps:          0       0       0       0       0       0       0       0       0       0       0       0       
      +0       0       0       0       0
  3017 ;;      Totals:         3       0       0       0       0       0       0       0       0       0       0       0       
      +0       0       0       0       0
  3018 ;;Total ram usage:        3 bytes
  3019 ;; Hardware stack levels used: 1
  3020 ;; Hardware stack levels required when called: 1
  3021 ;; This function calls:
  3022 ;;		_gpio_pin_write_logic
  3023 ;; This function is called by:
  3024 ;;		_main
  3025 ;; This function uses a non-reentrant model
  3026 ;;
  3027                           
  3028                           	psect	text13
  3029   0023AC                     __ptext13:
  3030                           	callstack 0
  3031   0023AC                     _dc_motor_stop:
  3032                           	callstack 29
  3033   0023AC                     
  3034                           ;ECU_layer/DC_Motor/ecu_Dc_motor.c: 95:     if(dc_motor == ((void*)0))
  3035   0023AC  503C               	movf	dc_motor_stop@dc_motor^0,w,c
  3036   0023AE  103D               	iorwf	(dc_motor_stop@dc_motor+1)^0,w,c
  3037   0023B0  A4D8               	btfss	status,2,c
  3038   0023B2  EFDD  F011         	goto	u1981
  3039   0023B6  EFDF  F011         	goto	u1980
  3040   0023BA                     u1981:
  3041   0023BA  EFE3  F011         	goto	l3086
  3042   0023BE                     u1980:
  3043   0023BE                     
  3044                           ;ECU_layer/DC_Motor/ecu_Dc_motor.c: 96:     {;ECU_layer/DC_Motor/ecu_Dc_motor.c: 97:    
      +                               ret = (Std_ReturnType)0x00;
  3045   0023BE  0E00               	movlw	0
  3046   0023C0  6E3E               	movwf	dc_motor_stop@ret^0,c
  3047                           
  3048                           ;ECU_layer/DC_Motor/ecu_Dc_motor.c: 98:     }
  3049   0023C2  EFF7  F011         	goto	l3088
  3050   0023C6                     l3086:
  3051                           
  3052                           ;ECU_layer/DC_Motor/ecu_Dc_motor.c: 100:     {;ECU_layer/DC_Motor/ecu_Dc_motor.c: 103:  
      +                                 ret = gpio_pin_write_logic(&(dc_motor->dc_motor_pin[0]),GPIO_LOW);
  3053   0023C6  C03C  F032         	movff	dc_motor_stop@dc_motor,gpio_pin_write_logic@pin
  3054   0023CA  C03D  F033         	movff	dc_motor_stop@dc_motor+1,gpio_pin_write_logic@pin+1
  3055   0023CE  0E00               	movlw	0
  3056   0023D0  6E34               	movwf	gpio_pin_write_logic@log^0,c
  3057   0023D2  ECFC  F00C         	call	_gpio_pin_write_logic	;wreg free
  3058   0023D6  6E3E               	movwf	dc_motor_stop@ret^0,c
  3059                           
  3060                           ;ECU_layer/DC_Motor/ecu_Dc_motor.c: 104:         ret = gpio_pin_write_logic(&(dc_motor->
      +                          dc_motor_pin[1]),GPIO_LOW);
  3061   0023D8  0E01               	movlw	1
  3062   0023DA  243C               	addwf	dc_motor_stop@dc_motor^0,w,c
  3063   0023DC  6E32               	movwf	gpio_pin_write_logic@pin^0,c
  3064   0023DE  0E00               	movlw	0
  3065   0023E0  203D               	addwfc	(dc_motor_stop@dc_motor+1)^0,w,c
  3066   0023E2  6E33               	movwf	(gpio_pin_write_logic@pin+1)^0,c
  3067   0023E4  0E00               	movlw	0
  3068   0023E6  6E34               	movwf	gpio_pin_write_logic@log^0,c
  3069   0023E8  ECFC  F00C         	call	_gpio_pin_write_logic	;wreg free
  3070   0023EC  6E3E               	movwf	dc_motor_stop@ret^0,c
  3071   0023EE                     l3088:
  3072                           
  3073                           ;ECU_layer/DC_Motor/ecu_Dc_motor.c: 106:     return ret;
  3074   0023EE  503E               	movf	dc_motor_stop@ret^0,w,c
  3075   0023F0  0012               	return		;funcret
  3076   0023F2                     __end_of_dc_motor_stop:
  3077                           	callstack 0
  3078                           
  3079 ;; *************** function _dc_motor_move_right *****************
  3080 ;; Defined at:
  3081 ;;		line 44 in file "ECU_layer/DC_Motor/ecu_Dc_motor.c"
  3082 ;; Parameters:    Size  Location     Type
  3083 ;;  dc_motor        2   10[COMRAM] PTR const struct .
  3084 ;;		 -> motor_1(2), 
  3085 ;; Auto vars:     Size  Location     Type
  3086 ;;  ret             1   12[COMRAM] unsigned char 
  3087 ;; Return value:  Size  Location     Type
  3088 ;;                  1    wreg      unsigned char 
  3089 ;; Registers used:
  3090 ;;		wreg, fsr2l, fsr2h, status,2, status,0, prodl, prodh, cstack
  3091 ;; Tracked objects:
  3092 ;;		On entry : 0/0
  3093 ;;		On exit  : 0/0
  3094 ;;		Unchanged: 0/0
  3095 ;; Data sizes:     COMRAM   BANK0   BANK1   BANK2   BANK3   BANK4   BANK5   BANK6   BANK7   BANK8   BANK9  BANK10  BANK1
      +1  BANK12  BANK13  BANK14  BANK15
  3096 ;;      Params:         2       0       0       0       0       0       0       0       0       0       0       0       
      +0       0       0       0       0
  3097 ;;      Locals:         1       0       0       0       0       0       0       0       0       0       0       0       
      +0       0       0       0       0
  3098 ;;      Temps:          0       0       0       0       0       0       0       0       0       0       0       0       
      +0       0       0       0       0
  3099 ;;      Totals:         3       0       0       0       0       0       0       0       0       0       0       0       
      +0       0       0       0       0
  3100 ;;Total ram usage:        3 bytes
  3101 ;; Hardware stack levels used: 1
  3102 ;; Hardware stack levels required when called: 1
  3103 ;; This function calls:
  3104 ;;		_gpio_pin_write_logic
  3105 ;; This function is called by:
  3106 ;;		_main
  3107 ;; This function uses a non-reentrant model
  3108 ;;
  3109                           
  3110                           	psect	text14
  3111   0023F2                     __ptext14:
  3112                           	callstack 0
  3113   0023F2                     _dc_motor_move_right:
  3114                           	callstack 29
  3115   0023F2                     
  3116                           ;ECU_layer/DC_Motor/ecu_Dc_motor.c: 47:     if(dc_motor == ((void*)0))
  3117   0023F2  503C               	movf	dc_motor_move_right@dc_motor^0,w,c
  3118   0023F4  103D               	iorwf	(dc_motor_move_right@dc_motor+1)^0,w,c
  3119   0023F6  A4D8               	btfss	status,2,c
  3120   0023F8  EF00  F012         	goto	u1961
  3121   0023FC  EF02  F012         	goto	u1960
  3122   002400                     u1961:
  3123   002400  EF06  F012         	goto	l3062
  3124   002404                     u1960:
  3125   002404                     
  3126                           ;ECU_layer/DC_Motor/ecu_Dc_motor.c: 48:     {;ECU_layer/DC_Motor/ecu_Dc_motor.c: 49:    
      +                               ret = (Std_ReturnType)0x00;
  3127   002404  0E00               	movlw	0
  3128   002406  6E3E               	movwf	dc_motor_move_right@ret^0,c
  3129                           
  3130                           ;ECU_layer/DC_Motor/ecu_Dc_motor.c: 50:     }
  3131   002408  EF1A  F012         	goto	l3064
  3132   00240C                     l3062:
  3133                           
  3134                           ;ECU_layer/DC_Motor/ecu_Dc_motor.c: 52:     {;ECU_layer/DC_Motor/ecu_Dc_motor.c: 54:    
      +                               ret = gpio_pin_write_logic(&(dc_motor->dc_motor_pin[0]),GPIO_HIGH);
  3135   00240C  C03C  F032         	movff	dc_motor_move_right@dc_motor,gpio_pin_write_logic@pin
  3136   002410  C03D  F033         	movff	dc_motor_move_right@dc_motor+1,gpio_pin_write_logic@pin+1
  3137   002414  0E01               	movlw	1
  3138   002416  6E34               	movwf	gpio_pin_write_logic@log^0,c
  3139   002418  ECFC  F00C         	call	_gpio_pin_write_logic	;wreg free
  3140   00241C  6E3E               	movwf	dc_motor_move_right@ret^0,c
  3141                           
  3142                           ;ECU_layer/DC_Motor/ecu_Dc_motor.c: 55:         ret = gpio_pin_write_logic(&(dc_motor->d
      +                          c_motor_pin[1]),GPIO_LOW);
  3143   00241E  0E01               	movlw	1
  3144   002420  243C               	addwf	dc_motor_move_right@dc_motor^0,w,c
  3145   002422  6E32               	movwf	gpio_pin_write_logic@pin^0,c
  3146   002424  0E00               	movlw	0
  3147   002426  203D               	addwfc	(dc_motor_move_right@dc_motor+1)^0,w,c
  3148   002428  6E33               	movwf	(gpio_pin_write_logic@pin+1)^0,c
  3149   00242A  0E00               	movlw	0
  3150   00242C  6E34               	movwf	gpio_pin_write_logic@log^0,c
  3151   00242E  ECFC  F00C         	call	_gpio_pin_write_logic	;wreg free
  3152   002432  6E3E               	movwf	dc_motor_move_right@ret^0,c
  3153   002434                     l3064:
  3154                           
  3155                           ;ECU_layer/DC_Motor/ecu_Dc_motor.c: 57:     return ret;
  3156   002434  503E               	movf	dc_motor_move_right@ret^0,w,c
  3157   002436  0012               	return		;funcret
  3158   002438                     __end_of_dc_motor_move_right:
  3159                           	callstack 0
  3160                           
  3161 ;; *************** function _dc_motor_move_left *****************
  3162 ;; Defined at:
  3163 ;;		line 67 in file "ECU_layer/DC_Motor/ecu_Dc_motor.c"
  3164 ;; Parameters:    Size  Location     Type
  3165 ;;  dc_motor        2   10[COMRAM] PTR const struct .
  3166 ;;		 -> motor_1(2), 
  3167 ;; Auto vars:     Size  Location     Type
  3168 ;;  ret             1   12[COMRAM] unsigned char 
  3169 ;; Return value:  Size  Location     Type
  3170 ;;                  1    wreg      unsigned char 
  3171 ;; Registers used:
  3172 ;;		wreg, fsr2l, fsr2h, status,2, status,0, prodl, prodh, cstack
  3173 ;; Tracked objects:
  3174 ;;		On entry : 0/0
  3175 ;;		On exit  : 0/0
  3176 ;;		Unchanged: 0/0
  3177 ;; Data sizes:     COMRAM   BANK0   BANK1   BANK2   BANK3   BANK4   BANK5   BANK6   BANK7   BANK8   BANK9  BANK10  BANK1
      +1  BANK12  BANK13  BANK14  BANK15
  3178 ;;      Params:         2       0       0       0       0       0       0       0       0       0       0       0       
      +0       0       0       0       0
  3179 ;;      Locals:         1       0       0       0       0       0       0       0       0       0       0       0       
      +0       0       0       0       0
  3180 ;;      Temps:          0       0       0       0       0       0       0       0       0       0       0       0       
      +0       0       0       0       0
  3181 ;;      Totals:         3       0       0       0       0       0       0       0       0       0       0       0       
      +0       0       0       0       0
  3182 ;;Total ram usage:        3 bytes
  3183 ;; Hardware stack levels used: 1
  3184 ;; Hardware stack levels required when called: 1
  3185 ;; This function calls:
  3186 ;;		_gpio_pin_write_logic
  3187 ;; This function is called by:
  3188 ;;		_main
  3189 ;; This function uses a non-reentrant model
  3190 ;;
  3191                           
  3192                           	psect	text15
  3193   002438                     __ptext15:
  3194                           	callstack 0
  3195   002438                     _dc_motor_move_left:
  3196                           	callstack 29
  3197   002438                     
  3198                           ;ECU_layer/DC_Motor/ecu_Dc_motor.c: 70:     if(dc_motor == ((void*)0))
  3199   002438  503C               	movf	dc_motor_move_left@dc_motor^0,w,c
  3200   00243A  103D               	iorwf	(dc_motor_move_left@dc_motor+1)^0,w,c
  3201   00243C  A4D8               	btfss	status,2,c
  3202   00243E  EF23  F012         	goto	u1971
  3203   002442  EF25  F012         	goto	u1970
  3204   002446                     u1971:
  3205   002446  EF29  F012         	goto	l3074
  3206   00244A                     u1970:
  3207   00244A                     
  3208                           ;ECU_layer/DC_Motor/ecu_Dc_motor.c: 71:     {;ECU_layer/DC_Motor/ecu_Dc_motor.c: 72:    
      +                               ret = (Std_ReturnType)0x00;
  3209   00244A  0E00               	movlw	0
  3210   00244C  6E3E               	movwf	dc_motor_move_left@ret^0,c
  3211                           
  3212                           ;ECU_layer/DC_Motor/ecu_Dc_motor.c: 73:     }
  3213   00244E  EF3D  F012         	goto	l3076
  3214   002452                     l3074:
  3215                           
  3216                           ;ECU_layer/DC_Motor/ecu_Dc_motor.c: 75:     {;ECU_layer/DC_Motor/ecu_Dc_motor.c: 77:    
      +                               ret = gpio_pin_write_logic(&(dc_motor->dc_motor_pin[0]),GPIO_LOW);
  3217   002452  C03C  F032         	movff	dc_motor_move_left@dc_motor,gpio_pin_write_logic@pin
  3218   002456  C03D  F033         	movff	dc_motor_move_left@dc_motor+1,gpio_pin_write_logic@pin+1
  3219   00245A  0E00               	movlw	0
  3220   00245C  6E34               	movwf	gpio_pin_write_logic@log^0,c
  3221   00245E  ECFC  F00C         	call	_gpio_pin_write_logic	;wreg free
  3222   002462  6E3E               	movwf	dc_motor_move_left@ret^0,c
  3223                           
  3224                           ;ECU_layer/DC_Motor/ecu_Dc_motor.c: 78:         ret = gpio_pin_write_logic(&(dc_motor->d
      +                          c_motor_pin[1]),GPIO_HIGH);
  3225   002464  0E01               	movlw	1
  3226   002466  243C               	addwf	dc_motor_move_left@dc_motor^0,w,c
  3227   002468  6E32               	movwf	gpio_pin_write_logic@pin^0,c
  3228   00246A  0E00               	movlw	0
  3229   00246C  203D               	addwfc	(dc_motor_move_left@dc_motor+1)^0,w,c
  3230   00246E  6E33               	movwf	(gpio_pin_write_logic@pin+1)^0,c
  3231   002470  0E01               	movlw	1
  3232   002472  6E34               	movwf	gpio_pin_write_logic@log^0,c
  3233   002474  ECFC  F00C         	call	_gpio_pin_write_logic	;wreg free
  3234   002478  6E3E               	movwf	dc_motor_move_left@ret^0,c
  3235   00247A                     l3076:
  3236                           
  3237                           ;ECU_layer/DC_Motor/ecu_Dc_motor.c: 80:     return ret;
  3238   00247A  503E               	movf	dc_motor_move_left@ret^0,w,c
  3239   00247C  0012               	return		;funcret
  3240   00247E                     __end_of_dc_motor_move_left:
  3241                           	callstack 0
  3242                           
  3243 ;; *************** function _atoi *****************
  3244 ;; Defined at:
  3245 ;;		line 4 in file "C:\Program Files\Microchip\xc8\v2.41\pic\sources\c99\common\atoi.c"
  3246 ;; Parameters:    Size  Location     Type
  3247 ;;  s               2    6[COMRAM] PTR const unsigned char 
  3248 ;;		 -> entered_password_arr(11), 
  3249 ;; Auto vars:     Size  Location     Type
  3250 ;;  n               2   13[COMRAM] int 
  3251 ;;  neg             2   11[COMRAM] int 
  3252 ;; Return value:  Size  Location     Type
  3253 ;;                  2    6[COMRAM] int 
  3254 ;; Registers used:
  3255 ;;		wreg, fsr2l, fsr2h, status,2, status,0, prodl, prodh, cstack
  3256 ;; Tracked objects:
  3257 ;;		On entry : 0/0
  3258 ;;		On exit  : 0/0
  3259 ;;		Unchanged: 0/0
  3260 ;; Data sizes:     COMRAM   BANK0   BANK1   BANK2   BANK3   BANK4   BANK5   BANK6   BANK7   BANK8   BANK9  BANK10  BANK1
      +1  BANK12  BANK13  BANK14  BANK15
  3261 ;;      Params:         2       0       0       0       0       0       0       0       0       0       0       0       
      +0       0       0       0       0
  3262 ;;      Locals:         4       0       0       0       0       0       0       0       0       0       0       0       
      +0       0       0       0       0
  3263 ;;      Temps:          3       0       0       0       0       0       0       0       0       0       0       0       
      +0       0       0       0       0
  3264 ;;      Totals:         9       0       0       0       0       0       0       0       0       0       0       0       
      +0       0       0       0       0
  3265 ;;Total ram usage:        9 bytes
  3266 ;; Hardware stack levels used: 1
  3267 ;; Hardware stack levels required when called: 1
  3268 ;; This function calls:
  3269 ;;		___wmul
  3270 ;;		_isdigit
  3271 ;;		_isspace
  3272 ;; This function is called by:
  3273 ;;		_main
  3274 ;; This function uses a non-reentrant model
  3275 ;;
  3276                           
  3277                           	psect	text16
  3278   00163E                     __ptext16:
  3279                           	callstack 0
  3280   00163E                     _atoi:
  3281                           	callstack 29
  3282   00163E  0E00               	movlw	0
  3283   001640  6E40               	movwf	(atoi@n+1)^0,c
  3284   001642  0E00               	movlw	0
  3285   001644  6E3F               	movwf	atoi@n^0,c
  3286   001646  0E00               	movlw	0
  3287   001648  6E3E               	movwf	(atoi@neg+1)^0,c
  3288   00164A  0E00               	movlw	0
  3289   00164C  6E3D               	movwf	atoi@neg^0,c
  3290   00164E  EF2B  F00B         	goto	l3232
  3291   001652                     l3228:
  3292   001652  4A38               	infsnz	atoi@s^0,f,c
  3293   001654  2A39               	incf	(atoi@s+1)^0,f,c
  3294   001656                     l3232:
  3295   001656  C038  FFD9         	movff	atoi@s,fsr2l
  3296   00165A  C039  FFDA         	movff	atoi@s+1,fsr2h
  3297   00165E  0E20               	movlw	32
  3298   001660  18DE               	xorwf	postinc2,w,c
  3299   001662  B4D8               	btfsc	status,2,c
  3300   001664  EF36  F00B         	goto	u2121
  3301   001668  EF38  F00B         	goto	u2120
  3302   00166C                     u2121:
  3303   00166C  EF29  F00B         	goto	l3228
  3304   001670                     u2120:
  3305   001670  C038  FFD9         	movff	atoi@s,fsr2l
  3306   001674  C039  FFDA         	movff	atoi@s+1,fsr2h
  3307   001678  50DF               	movf	indf2,w,c
  3308   00167A  6E3A               	movwf	??_atoi^0,c
  3309   00167C  0EF7               	movlw	247
  3310   00167E  243A               	addwf	??_atoi^0,w,c
  3311   001680  6E3B               	movwf	(??_atoi+1)^0,c
  3312   001682  6A3C               	clrf	(??_atoi+2)^0,c
  3313   001684  0EFF               	movlw	255
  3314   001686  223C               	addwfc	(??_atoi+2)^0,f,c
  3315   001688  503C               	movf	(??_atoi+2)^0,w,c
  3316   00168A  E109               	bnz	u2130
  3317   00168C  0E05               	movlw	5
  3318   00168E  5C3B               	subwf	(??_atoi+1)^0,w,c
  3319   001690  A0D8               	btfss	status,0,c
  3320   001692  EF4D  F00B         	goto	u2131
  3321   001696  EF4F  F00B         	goto	u2130
  3322   00169A                     u2131:
  3323   00169A  EF29  F00B         	goto	l3228
  3324   00169E                     u2130:
  3325   00169E  EF59  F00B         	goto	l3240
  3326   0016A2                     l3236:
  3327   0016A2  0E00               	movlw	0
  3328   0016A4  6E3E               	movwf	(atoi@neg+1)^0,c
  3329   0016A6  0E01               	movlw	1
  3330   0016A8  6E3D               	movwf	atoi@neg^0,c
  3331   0016AA                     l3238:
  3332   0016AA  4A38               	infsnz	atoi@s^0,f,c
  3333   0016AC  2A39               	incf	(atoi@s+1)^0,f,c
  3334   0016AE  EF8E  F00B         	goto	l3248
  3335   0016B2                     l3240:
  3336   0016B2  C038  FFD9         	movff	atoi@s,fsr2l
  3337   0016B6  C039  FFDA         	movff	atoi@s+1,fsr2h
  3338   0016BA  50DF               	movf	indf2,w,c
  3339   0016BC  6E3A               	movwf	??_atoi^0,c
  3340   0016BE  6A3B               	clrf	(??_atoi+1)^0,c
  3341                           
  3342                           ; Switch on 2 bytes has been partitioned into a top level switch of size 1, and 1 sub-sw
      +                          itches
  3343                           ; Switch size 1, requested type "simple"
  3344                           ; Number of cases is 1, Range of values is 0 to 0
  3345                           ; switch strategies available:
  3346                           ; Name         Instructions Cycles
  3347                           ; simple_byte            4     3 (average)
  3348                           ;	Chosen strategy is simple_byte
  3349   0016C0  503B               	movf	(??_atoi+1)^0,w,c
  3350   0016C2  0A00               	xorlw	0	; case 0
  3351   0016C4  B4D8               	btfsc	status,2,c
  3352   0016C6  EF67  F00B         	goto	l3710
  3353   0016CA  EF8E  F00B         	goto	l3248
  3354   0016CE                     l3710:
  3355                           
  3356                           ; Switch size 1, requested type "simple"
  3357                           ; Number of cases is 2, Range of values is 43 to 45
  3358                           ; switch strategies available:
  3359                           ; Name         Instructions Cycles
  3360                           ; simple_byte            7     4 (average)
  3361                           ;	Chosen strategy is simple_byte
  3362   0016CE  503A               	movf	??_atoi^0,w,c
  3363   0016D0  0A2B               	xorlw	43	; case 43
  3364   0016D2  B4D8               	btfsc	status,2,c
  3365   0016D4  EF55  F00B         	goto	l3238
  3366   0016D8  0A06               	xorlw	6	; case 45
  3367   0016DA  B4D8               	btfsc	status,2,c
  3368   0016DC  EF51  F00B         	goto	l3236
  3369   0016E0  EF8E  F00B         	goto	l3248
  3370   0016E4                     l3242:
  3371   0016E4  C03F  F032         	movff	atoi@n,___wmul@multiplier
  3372   0016E8  C040  F033         	movff	atoi@n+1,___wmul@multiplier+1
  3373   0016EC  0E00               	movlw	0
  3374   0016EE  6E35               	movwf	(___wmul@multiplicand+1)^0,c
  3375   0016F0  0E0A               	movlw	10
  3376   0016F2  6E34               	movwf	___wmul@multiplicand^0,c
  3377   0016F4  EC05  F013         	call	___wmul	;wreg free
  3378   0016F8  C038  FFD9         	movff	atoi@s,fsr2l
  3379   0016FC  C039  FFDA         	movff	atoi@s+1,fsr2h
  3380   001700  50DF               	movf	indf2,w,c
  3381   001702  6E3A               	movwf	??_atoi^0,c
  3382   001704  503A               	movf	??_atoi^0,w,c
  3383   001706  5E32               	subwf	?___wmul^0,f,c
  3384   001708  0E00               	movlw	0
  3385   00170A  5A33               	subwfb	(?___wmul+1)^0,f,c
  3386   00170C  0E30               	movlw	48
  3387   00170E  2432               	addwf	?___wmul^0,w,c
  3388   001710  6E3F               	movwf	atoi@n^0,c
  3389   001712  0E00               	movlw	0
  3390   001714  2033               	addwfc	(?___wmul+1)^0,w,c
  3391   001716  6E40               	movwf	(atoi@n+1)^0,c
  3392   001718  EF55  F00B         	goto	l3238
  3393   00171C                     l3248:
  3394   00171C  C038  FFD9         	movff	atoi@s,fsr2l
  3395   001720  C039  FFDA         	movff	atoi@s+1,fsr2h
  3396   001724  50DF               	movf	indf2,w,c
  3397   001726  6E3A               	movwf	??_atoi^0,c
  3398   001728  0ED0               	movlw	208
  3399   00172A  243A               	addwf	??_atoi^0,w,c
  3400   00172C  6E3B               	movwf	(??_atoi+1)^0,c
  3401   00172E  6A3C               	clrf	(??_atoi+2)^0,c
  3402   001730  0EFF               	movlw	255
  3403   001732  223C               	addwfc	(??_atoi+2)^0,f,c
  3404   001734  503C               	movf	(??_atoi+2)^0,w,c
  3405   001736  E109               	bnz	u2140
  3406   001738  0E0A               	movlw	10
  3407   00173A  5C3B               	subwf	(??_atoi+1)^0,w,c
  3408   00173C  A0D8               	btfss	status,0,c
  3409   00173E  EFA3  F00B         	goto	u2141
  3410   001742  EFA5  F00B         	goto	u2140
  3411   001746                     u2141:
  3412   001746  EF72  F00B         	goto	l3242
  3413   00174A                     u2140:
  3414   00174A  503D               	movf	atoi@neg^0,w,c
  3415   00174C  103E               	iorwf	(atoi@neg+1)^0,w,c
  3416   00174E  A4D8               	btfss	status,2,c
  3417   001750  EFAC  F00B         	goto	u2151
  3418   001754  EFAE  F00B         	goto	u2150
  3419   001758                     u2151:
  3420   001758  EFBC  F00B         	goto	l1276
  3421   00175C                     u2150:
  3422   00175C  C03F  F03A         	movff	atoi@n,??_atoi
  3423   001760  C040  F03B         	movff	atoi@n+1,??_atoi+1
  3424   001764  1E3A               	comf	??_atoi^0,f,c
  3425   001766  1E3B               	comf	(??_atoi+1)^0,f,c
  3426   001768  4A3A               	infsnz	??_atoi^0,f,c
  3427   00176A  2A3B               	incf	(??_atoi+1)^0,f,c
  3428   00176C  C03A  F038         	movff	??_atoi,?_atoi
  3429   001770  C03B  F039         	movff	??_atoi+1,?_atoi+1
  3430   001774  EFC0  F00B         	goto	l1279
  3431   001778                     l1276:
  3432   001778  C03F  F038         	movff	atoi@n,?_atoi
  3433   00177C  C040  F039         	movff	atoi@n+1,?_atoi+1
  3434   001780                     l1279:
  3435   001780  0012               	return		;funcret
  3436   001782                     __end_of_atoi:
  3437                           	callstack 0
  3438                           
  3439 ;; *************** function _isspace *****************
  3440 ;; Defined at:
  3441 ;;		line 5 in file "C:\Program Files\Microchip\xc8\v2.41\pic\sources\c99\common\isspace.c"
  3442 ;; Parameters:    Size  Location     Type
  3443 ;;  c               2    0[COMRAM] int 
  3444 ;; Auto vars:     Size  Location     Type
  3445 ;;		None
  3446 ;; Return value:  Size  Location     Type
  3447 ;;                  2    0[COMRAM] int 
  3448 ;; Registers used:
  3449 ;;		wreg, status,2, status,0
  3450 ;; Tracked objects:
  3451 ;;		On entry : 0/0
  3452 ;;		On exit  : 0/0
  3453 ;;		Unchanged: 0/0
  3454 ;; Data sizes:     COMRAM   BANK0   BANK1   BANK2   BANK3   BANK4   BANK5   BANK6   BANK7   BANK8   BANK9  BANK10  BANK1
      +1  BANK12  BANK13  BANK14  BANK15
  3455 ;;      Params:         2       0       0       0       0       0       0       0       0       0       0       0       
      +0       0       0       0       0
  3456 ;;      Locals:         1       0       0       0       0       0       0       0       0       0       0       0       
      +0       0       0       0       0
  3457 ;;      Temps:          2       0       0       0       0       0       0       0       0       0       0       0       
      +0       0       0       0       0
  3458 ;;      Totals:         5       0       0       0       0       0       0       0       0       0       0       0       
      +0       0       0       0       0
  3459 ;;Total ram usage:        5 bytes
  3460 ;; Hardware stack levels used: 1
  3461 ;; This function calls:
  3462 ;;		Nothing
  3463 ;; This function is called by:
  3464 ;;		_atoi
  3465 ;; This function uses a non-reentrant model
  3466 ;;
  3467                           
  3468                           	psect	text17
  3469   00247E                     __ptext17:
  3470                           	callstack 0
  3471   00247E                     _isspace:
  3472                           	callstack 29
  3473   00247E  0E01               	movlw	1
  3474   002480  6E36               	movwf	_isspace$1383^0,c
  3475   002482  0E20               	movlw	32
  3476   002484  1832               	xorwf	isspace@c^0,w,c
  3477   002486  1033               	iorwf	(isspace@c+1)^0,w,c
  3478   002488  B4D8               	btfsc	status,2,c
  3479   00248A  EF49  F012         	goto	u1801
  3480   00248E  EF4B  F012         	goto	u1800
  3481   002492                     u1801:
  3482   002492  EF5E  F012         	goto	l2960
  3483   002496                     u1800:
  3484   002496  0EF7               	movlw	247
  3485   002498  2432               	addwf	isspace@c^0,w,c
  3486   00249A  6E34               	movwf	??_isspace^0,c
  3487   00249C  0EFF               	movlw	255
  3488   00249E  2033               	addwfc	(isspace@c+1)^0,w,c
  3489   0024A0  6E35               	movwf	(??_isspace+1)^0,c
  3490   0024A2  5035               	movf	(??_isspace+1)^0,w,c
  3491   0024A4  E109               	bnz	u1810
  3492   0024A6  0E05               	movlw	5
  3493   0024A8  5C34               	subwf	??_isspace^0,w,c
  3494   0024AA  A0D8               	btfss	status,0,c
  3495   0024AC  EF5A  F012         	goto	u1811
  3496   0024B0  EF5C  F012         	goto	u1810
  3497   0024B4                     u1811:
  3498   0024B4  EF5E  F012         	goto	l2960
  3499   0024B8                     u1810:
  3500   0024B8  0E00               	movlw	0
  3501   0024BA  6E36               	movwf	_isspace$1383^0,c
  3502   0024BC                     l2960:
  3503   0024BC  C036  F032         	movff	_isspace$1383,?_isspace
  3504   0024C0  6A33               	clrf	(?_isspace+1)^0,c
  3505   0024C2  0012               	return		;funcret
  3506   0024C4                     __end_of_isspace:
  3507                           	callstack 0
  3508                           
  3509 ;; *************** function _isdigit *****************
  3510 ;; Defined at:
  3511 ;;		line 5 in file "C:\Program Files\Microchip\xc8\v2.41\pic\sources\c99\common\isdigit.c"
  3512 ;; Parameters:    Size  Location     Type
  3513 ;;  c               2    0[COMRAM] int 
  3514 ;; Auto vars:     Size  Location     Type
  3515 ;;		None
  3516 ;; Return value:  Size  Location     Type
  3517 ;;                  2    0[COMRAM] int 
  3518 ;; Registers used:
  3519 ;;		wreg, status,2, status,0
  3520 ;; Tracked objects:
  3521 ;;		On entry : 0/0
  3522 ;;		On exit  : 0/0
  3523 ;;		Unchanged: 0/0
  3524 ;; Data sizes:     COMRAM   BANK0   BANK1   BANK2   BANK3   BANK4   BANK5   BANK6   BANK7   BANK8   BANK9  BANK10  BANK1
      +1  BANK12  BANK13  BANK14  BANK15
  3525 ;;      Params:         2       0       0       0       0       0       0       0       0       0       0       0       
      +0       0       0       0       0
  3526 ;;      Locals:         0       0       0       0       0       0       0       0       0       0       0       0       
      +0       0       0       0       0
  3527 ;;      Temps:          2       0       0       0       0       0       0       0       0       0       0       0       
      +0       0       0       0       0
  3528 ;;      Totals:         4       0       0       0       0       0       0       0       0       0       0       0       
      +0       0       0       0       0
  3529 ;;Total ram usage:        4 bytes
  3530 ;; Hardware stack levels used: 1
  3531 ;; This function calls:
  3532 ;;		Nothing
  3533 ;; This function is called by:
  3534 ;;		_atoi
  3535 ;; This function uses a non-reentrant model
  3536 ;;
  3537                           
  3538                           	psect	text18
  3539   0025DE                     __ptext18:
  3540                           	callstack 0
  3541   0025DE                     _isdigit:
  3542                           	callstack 29
  3543   0025DE  0ED0               	movlw	208
  3544   0025E0  2432               	addwf	isdigit@c^0,w,c
  3545   0025E2  6E34               	movwf	??_isdigit^0,c
  3546   0025E4  0EFF               	movlw	255
  3547   0025E6  2033               	addwfc	(isdigit@c+1)^0,w,c
  3548   0025E8  6E35               	movwf	(??_isdigit+1)^0,c
  3549   0025EA  5035               	movf	(??_isdigit+1)^0,w,c
  3550   0025EC  E10A               	bnz	u1820
  3551   0025EE  0E0A               	movlw	10
  3552   0025F0  5C34               	subwf	??_isdigit^0,w,c
  3553   0025F2  A0D8               	btfss	status,0,c
  3554   0025F4  EFFE  F012         	goto	u1821
  3555   0025F8  EF01  F013         	goto	u1820
  3556   0025FC                     u1821:
  3557   0025FC  0E01               	movlw	1
  3558   0025FE  EF02  F013         	goto	u1830
  3559   002602                     u1820:
  3560   002602  0E00               	movlw	0
  3561   002604                     u1830:
  3562   002604  6E32               	movwf	?_isdigit^0,c
  3563   002606  6A33               	clrf	(?_isdigit+1)^0,c
  3564   002608  0012               	return		;funcret
  3565   00260A                     __end_of_isdigit:
  3566                           	callstack 0
  3567                           
  3568 ;; *************** function ___wmul *****************
  3569 ;; Defined at:
  3570 ;;		line 15 in file "C:\Program Files\Microchip\xc8\v2.41\pic\sources\c99\common\Umul16.c"
  3571 ;; Parameters:    Size  Location     Type
  3572 ;;  multiplier      2    0[COMRAM] unsigned int 
  3573 ;;  multiplicand    2    2[COMRAM] unsigned int 
  3574 ;; Auto vars:     Size  Location     Type
  3575 ;;  product         2    4[COMRAM] unsigned int 
  3576 ;; Return value:  Size  Location     Type
  3577 ;;                  2    0[COMRAM] unsigned int 
  3578 ;; Registers used:
  3579 ;;		wreg, status,2, status,0, prodl, prodh
  3580 ;; Tracked objects:
  3581 ;;		On entry : 0/0
  3582 ;;		On exit  : 0/0
  3583 ;;		Unchanged: 0/0
  3584 ;; Data sizes:     COMRAM   BANK0   BANK1   BANK2   BANK3   BANK4   BANK5   BANK6   BANK7   BANK8   BANK9  BANK10  BANK1
      +1  BANK12  BANK13  BANK14  BANK15
  3585 ;;      Params:         4       0       0       0       0       0       0       0       0       0       0       0       
      +0       0       0       0       0
  3586 ;;      Locals:         2       0       0       0       0       0       0       0       0       0       0       0       
      +0       0       0       0       0
  3587 ;;      Temps:          0       0       0       0       0       0       0       0       0       0       0       0       
      +0       0       0       0       0
  3588 ;;      Totals:         6       0       0       0       0       0       0       0       0       0       0       0       
      +0       0       0       0       0
  3589 ;;Total ram usage:        6 bytes
  3590 ;; Hardware stack levels used: 1
  3591 ;; This function calls:
  3592 ;;		Nothing
  3593 ;; This function is called by:
  3594 ;;		_atoi
  3595 ;; This function uses a non-reentrant model
  3596 ;;
  3597                           
  3598                           	psect	text19
  3599   00260A                     __ptext19:
  3600                           	callstack 0
  3601   00260A                     ___wmul:
  3602                           	callstack 29
  3603   00260A  5032               	movf	___wmul@multiplier^0,w,c
  3604   00260C  0234               	mulwf	___wmul@multiplicand^0,c
  3605   00260E  CFF3 F036          	movff	prodl,___wmul@product
  3606   002612  CFF4 F037          	movff	prodh,___wmul@product+1
  3607   002616  5032               	movf	___wmul@multiplier^0,w,c
  3608   002618  0235               	mulwf	(___wmul@multiplicand+1)^0,c
  3609   00261A  50F3               	movf	243,w,c
  3610   00261C  2637               	addwf	(___wmul@product+1)^0,f,c
  3611   00261E  5033               	movf	(___wmul@multiplier+1)^0,w,c
  3612   002620  0234               	mulwf	___wmul@multiplicand^0,c
  3613   002622  50F3               	movf	243,w,c
  3614   002624  2637               	addwf	(___wmul@product+1)^0,f,c
  3615   002626  C036  F032         	movff	___wmul@product,?___wmul
  3616   00262A  C037  F033         	movff	___wmul@product+1,?___wmul+1
  3617   00262E  0012               	return		;funcret
  3618   002630                     __end_of___wmul:
  3619                           	callstack 0
  3620                           
  3621 ;; *************** function _application_initialize *****************
  3622 ;; Defined at:
  3623 ;;		line 128 in file "application.c"
  3624 ;; Parameters:    Size  Location     Type
  3625 ;;		None
  3626 ;; Auto vars:     Size  Location     Type
  3627 ;;		None
  3628 ;; Return value:  Size  Location     Type
  3629 ;;                  1    wreg      void 
  3630 ;; Registers used:
  3631 ;;		wreg, fsr2l, fsr2h, status,2, status,0, prodl, prodh, cstack
  3632 ;; Tracked objects:
  3633 ;;		On entry : 0/0
  3634 ;;		On exit  : 0/0
  3635 ;;		Unchanged: 0/0
  3636 ;; Data sizes:     COMRAM   BANK0   BANK1   BANK2   BANK3   BANK4   BANK5   BANK6   BANK7   BANK8   BANK9  BANK10  BANK1
      +1  BANK12  BANK13  BANK14  BANK15
  3637 ;;      Params:         0       0       0       0       0       0       0       0       0       0       0       0       
      +0       0       0       0       0
  3638 ;;      Locals:         0       0       0       0       0       0       0       0       0       0       0       0       
      +0       0       0       0       0
  3639 ;;      Temps:          0       0       0       0       0       0       0       0       0       0       0       0       
      +0       0       0       0       0
  3640 ;;      Totals:         0       0       0       0       0       0       0       0       0       0       0       0       
      +0       0       0       0       0
  3641 ;;Total ram usage:        0 bytes
  3642 ;; Hardware stack levels used: 1
  3643 ;; Hardware stack levels required when called: 5
  3644 ;; This function calls:
  3645 ;;		_ecu_initialize
  3646 ;; This function is called by:
  3647 ;;		_main
  3648 ;; This function uses a non-reentrant model
  3649 ;;
  3650                           
  3651                           	psect	text20
  3652   002630                     __ptext20:
  3653                           	callstack 0
  3654   002630                     _application_initialize:
  3655                           	callstack 25
  3656   002630                     
  3657                           ;application.c: 130:     ecu_initialize();
  3658   002630  EC62  F012         	call	_ecu_initialize	;wreg free
  3659   002634  0012               	return		;funcret
  3660   002636                     __end_of_application_initialize:
  3661                           	callstack 0
  3662                           
  3663 ;; *************** function _ecu_initialize *****************
  3664 ;; Defined at:
  3665 ;;		line 91 in file "ECU_layer/ecu_initialize.c"
  3666 ;; Parameters:    Size  Location     Type
  3667 ;;		None
  3668 ;; Auto vars:     Size  Location     Type
  3669 ;;  ret             1    0        unsigned char 
  3670 ;; Return value:  Size  Location     Type
  3671 ;;                  1    wreg      void 
  3672 ;; Registers used:
  3673 ;;		wreg, fsr2l, fsr2h, status,2, status,0, prodl, prodh, cstack
  3674 ;; Tracked objects:
  3675 ;;		On entry : 0/0
  3676 ;;		On exit  : 0/0
  3677 ;;		Unchanged: 0/0
  3678 ;; Data sizes:     COMRAM   BANK0   BANK1   BANK2   BANK3   BANK4   BANK5   BANK6   BANK7   BANK8   BANK9  BANK10  BANK1
      +1  BANK12  BANK13  BANK14  BANK15
  3679 ;;      Params:         0       0       0       0       0       0       0       0       0       0       0       0       
      +0       0       0       0       0
  3680 ;;      Locals:         0       0       0       0       0       0       0       0       0       0       0       0       
      +0       0       0       0       0
  3681 ;;      Temps:          0       0       0       0       0       0       0       0       0       0       0       0       
      +0       0       0       0       0
  3682 ;;      Totals:         0       0       0       0       0       0       0       0       0       0       0       0       
      +0       0       0       0       0
  3683 ;;Total ram usage:        0 bytes
  3684 ;; Hardware stack levels used: 1
  3685 ;; Hardware stack levels required when called: 4
  3686 ;; This function calls:
  3687 ;;		_dc_motor_initialize
  3688 ;;		_keypad_initialize
  3689 ;;		_lcd_4bit_initialize
  3690 ;;		_led_initialize
  3691 ;; This function is called by:
  3692 ;;		_application_initialize
  3693 ;; This function uses a non-reentrant model
  3694 ;;
  3695                           
  3696                           	psect	text21
  3697   0024C4                     __ptext21:
  3698                           	callstack 0
  3699   0024C4                     _ecu_initialize:
  3700                           	callstack 25
  3701   0024C4  0E28               	movlw	low _lcd_1
  3702   0024C6  6E48               	movwf	lcd_4bit_initialize@lcd_obj^0,c
  3703   0024C8  0E00               	movlw	high _lcd_1
  3704   0024CA  6E49               	movwf	(lcd_4bit_initialize@lcd_obj+1)^0,c
  3705   0024CC  EC63  F00C         	call	_lcd_4bit_initialize	;wreg free
  3706   0024D0  0E21               	movlw	low _kp1
  3707   0024D2  6E40               	movwf	keypad_initialize@keypad^0,c
  3708   0024D4  0E00               	movlw	high _kp1
  3709   0024D6  6E41               	movwf	(keypad_initialize@keypad+1)^0,c
  3710   0024D8  EC04  F010         	call	_keypad_initialize	;wreg free
  3711   0024DC  0E2E               	movlw	low _motor_1
  3712   0024DE  6E40               	movwf	dc_motor_initialize@dc_motor^0,c
  3713   0024E0  0E00               	movlw	high _motor_1
  3714   0024E2  6E41               	movwf	(dc_motor_initialize@dc_motor+1)^0,c
  3715   0024E4  EC81  F012         	call	_dc_motor_initialize	;wreg free
  3716   0024E8  0E31               	movlw	low _led_1
  3717   0024EA  6E40               	movwf	led_initialize@led^0,c
  3718   0024EC  0E00               	movlw	high _led_1
  3719   0024EE  6E41               	movwf	(led_initialize@led+1)^0,c
  3720   0024F0  ECC4  F00F         	call	_led_initialize	;wreg free
  3721   0024F4  0E30               	movlw	low _led_2
  3722   0024F6  6E40               	movwf	led_initialize@led^0,c
  3723   0024F8  0E00               	movlw	high _led_2
  3724   0024FA  6E41               	movwf	(led_initialize@led+1)^0,c
  3725   0024FC  ECC4  F00F         	call	_led_initialize	;wreg free
  3726   002500  0012               	return		;funcret
  3727   002502                     __end_of_ecu_initialize:
  3728                           	callstack 0
  3729                           
  3730 ;; *************** function _led_initialize *****************
  3731 ;; Defined at:
  3732 ;;		line 11 in file "ECU_layer/LED/ecu_led.c"
  3733 ;; Parameters:    Size  Location     Type
  3734 ;;  led             2   14[COMRAM] PTR const struct .
  3735 ;;		 -> led_2(1), led_1(1), 
  3736 ;; Auto vars:     Size  Location     Type
  3737 ;;  pin_obj         1   18[COMRAM] struct .
  3738 ;;  ret             1   17[COMRAM] unsigned char 
  3739 ;; Return value:  Size  Location     Type
  3740 ;;                  1    wreg      unsigned char 
  3741 ;; Registers used:
  3742 ;;		wreg, fsr2l, fsr2h, status,2, status,0, prodl, prodh, cstack
  3743 ;; Tracked objects:
  3744 ;;		On entry : 0/0
  3745 ;;		On exit  : 0/0
  3746 ;;		Unchanged: 0/0
  3747 ;; Data sizes:     COMRAM   BANK0   BANK1   BANK2   BANK3   BANK4   BANK5   BANK6   BANK7   BANK8   BANK9  BANK10  BANK1
      +1  BANK12  BANK13  BANK14  BANK15
  3748 ;;      Params:         2       0       0       0       0       0       0       0       0       0       0       0       
      +0       0       0       0       0
  3749 ;;      Locals:         2       0       0       0       0       0       0       0       0       0       0       0       
      +0       0       0       0       0
  3750 ;;      Temps:          1       0       0       0       0       0       0       0       0       0       0       0       
      +0       0       0       0       0
  3751 ;;      Totals:         5       0       0       0       0       0       0       0       0       0       0       0       
      +0       0       0       0       0
  3752 ;;Total ram usage:        5 bytes
  3753 ;; Hardware stack levels used: 1
  3754 ;; Hardware stack levels required when called: 2
  3755 ;; This function calls:
  3756 ;;		_gpio_pin_initialize
  3757 ;; This function is called by:
  3758 ;;		_ecu_initialize
  3759 ;; This function uses a non-reentrant model
  3760 ;;
  3761                           
  3762                           	psect	text22
  3763   001F88                     __ptext22:
  3764                           	callstack 0
  3765   001F88                     _led_initialize:
  3766                           	callstack 26
  3767   001F88                     
  3768                           ;ECU_layer/LED/ecu_led.c: 11: Std_ReturnType led_initialize(const led_t *led);ECU_layer/
      +                          LED/ecu_led.c: 12: {;ECU_layer/LED/ecu_led.c: 13:     Std_ReturnType ret = (Std_ReturnTy
      +                          pe)0x01;
  3769   001F88  0E01               	movlw	1
  3770   001F8A  6E43               	movwf	led_initialize@ret^0,c
  3771   001F8C                     
  3772                           ;ECU_layer/LED/ecu_led.c: 15:     if(led==((void*)0))
  3773   001F8C  5040               	movf	led_initialize@led^0,w,c
  3774   001F8E  1041               	iorwf	(led_initialize@led+1)^0,w,c
  3775   001F90  A4D8               	btfss	status,2,c
  3776   001F92  EFCD  F00F         	goto	u1671
  3777   001F96  EFCF  F00F         	goto	u1670
  3778   001F9A                     u1671:
  3779   001F9A  EFD3  F00F         	goto	l284
  3780   001F9E                     u1670:
  3781   001F9E                     
  3782                           ;ECU_layer/LED/ecu_led.c: 16:     {;ECU_layer/LED/ecu_led.c: 17:         ret = (Std_Retu
      +                          rnType)0x00;
  3783   001F9E  0E00               	movlw	0
  3784   001FA0  6E43               	movwf	led_initialize@ret^0,c
  3785                           
  3786                           ;ECU_layer/LED/ecu_led.c: 18:     }
  3787   001FA2  EF02  F010         	goto	l2846
  3788   001FA6                     l284:
  3789                           
  3790                           ;ECU_layer/LED/ecu_led.c: 20:     {;ECU_layer/LED/ecu_led.c: 21:         pin_config pin_
      +                          obj = {
  3791   001FA6  C066  F044         	movff	led_initialize@F3050,led_initialize@pin_obj
  3792   001FAA  C040  FFD9         	movff	led_initialize@led,fsr2l
  3793   001FAE  C041  FFDA         	movff	led_initialize@led+1,fsr2h
  3794   001FB2  50DF               	movf	223,w,c
  3795   001FB4  0B07               	andlw	7
  3796   001FB6  6E42               	movwf	??_led_initialize^0,c
  3797   001FB8  5044               	movf	led_initialize@pin_obj^0,w,c
  3798   001FBA  1842               	xorwf	??_led_initialize^0,w,c
  3799   001FBC  0BF8               	andlw	-8
  3800   001FBE  1842               	xorwf	??_led_initialize^0,w,c
  3801   001FC0  6E44               	movwf	led_initialize@pin_obj^0,c
  3802   001FC2  C040  FFD9         	movff	led_initialize@led,fsr2l
  3803   001FC6  C041  FFDA         	movff	led_initialize@led+1,fsr2h
  3804   001FCA  30DF               	rrcf	223,w,c
  3805   001FCC  32E8               	rrcf	wreg,f,c
  3806   001FCE  32E8               	rrcf	wreg,f,c
  3807   001FD0  0B07               	andlw	7
  3808   001FD2  6E42               	movwf	??_led_initialize^0,c
  3809   001FD4  4642               	rlncf	??_led_initialize^0,f,c
  3810   001FD6  4642               	rlncf	??_led_initialize^0,f,c
  3811   001FD8  4642               	rlncf	??_led_initialize^0,f,c
  3812   001FDA  5044               	movf	led_initialize@pin_obj^0,w,c
  3813   001FDC  1842               	xorwf	??_led_initialize^0,w,c
  3814   001FDE  0BC7               	andlw	-57
  3815   001FE0  1842               	xorwf	??_led_initialize^0,w,c
  3816   001FE2  6E44               	movwf	led_initialize@pin_obj^0,c
  3817   001FE4  9C44               	bcf	led_initialize@pin_obj^0,6,c
  3818   001FE6  C040  FFD9         	movff	led_initialize@led,fsr2l
  3819   001FEA  C041  FFDA         	movff	led_initialize@led+1,fsr2h
  3820   001FEE  ACDF               	btfss	indf2,6,c
  3821   001FF0  D002               	bra	u1685
  3822   001FF2  8E44               	bsf	led_initialize@pin_obj^0,7,c
  3823   001FF4  D001               	bra	u1687
  3824   001FF6                     u1685:
  3825   001FF6  9E44               	bcf	led_initialize@pin_obj^0,7,c
  3826   001FF8                     u1687:
  3827   001FF8                     
  3828                           ;ECU_layer/LED/ecu_led.c: 27:         gpio_pin_initialize(&pin_obj);
  3829   001FF8  0E44               	movlw	low led_initialize@pin_obj
  3830   001FFA  6E3C               	movwf	gpio_pin_initialize@pin^0,c
  3831   001FFC  0E00               	movlw	high led_initialize@pin_obj
  3832   001FFE  6E3D               	movwf	(gpio_pin_initialize@pin+1)^0,c
  3833   002000  EC29  F011         	call	_gpio_pin_initialize	;wreg free
  3834   002004                     l2846:
  3835                           
  3836                           ;ECU_layer/LED/ecu_led.c: 30:     return ret;
  3837   002004  5043               	movf	led_initialize@ret^0,w,c
  3838   002006  0012               	return		;funcret
  3839   002008                     __end_of_led_initialize:
  3840                           	callstack 0
  3841                           
  3842 ;; *************** function _lcd_4bit_initialize *****************
  3843 ;; Defined at:
  3844 ;;		line 24 in file "ECU_layer/Char_lCD/ecu_chr_lcd.c"
  3845 ;; Parameters:    Size  Location     Type
  3846 ;;  lcd_obj         2   22[COMRAM] PTR const struct .
  3847 ;;		 -> lcd_1(6), 
  3848 ;; Auto vars:     Size  Location     Type
  3849 ;;  i               2   25[COMRAM] int 
  3850 ;;  ret             1   27[COMRAM] unsigned char 
  3851 ;; Return value:  Size  Location     Type
  3852 ;;                  1    wreg      unsigned char 
  3853 ;; Registers used:
  3854 ;;		wreg, fsr2l, fsr2h, status,2, status,0, prodl, prodh, cstack
  3855 ;; Tracked objects:
  3856 ;;		On entry : 0/0
  3857 ;;		On exit  : 0/0
  3858 ;;		Unchanged: 0/0
  3859 ;; Data sizes:     COMRAM   BANK0   BANK1   BANK2   BANK3   BANK4   BANK5   BANK6   BANK7   BANK8   BANK9  BANK10  BANK1
      +1  BANK12  BANK13  BANK14  BANK15
  3860 ;;      Params:         2       0       0       0       0       0       0       0       0       0       0       0       
      +0       0       0       0       0
  3861 ;;      Locals:         3       0       0       0       0       0       0       0       0       0       0       0       
      +0       0       0       0       0
  3862 ;;      Temps:          1       0       0       0       0       0       0       0       0       0       0       0       
      +0       0       0       0       0
  3863 ;;      Totals:         6       0       0       0       0       0       0       0       0       0       0       0       
      +0       0       0       0       0
  3864 ;;Total ram usage:        6 bytes
  3865 ;; Hardware stack levels used: 1
  3866 ;; Hardware stack levels required when called: 3
  3867 ;; This function calls:
  3868 ;;		_gpio_pin_initialize
  3869 ;;		_lcd_4bit_send_command
  3870 ;; This function is called by:
  3871 ;;		_ecu_initialize
  3872 ;; This function uses a non-reentrant model
  3873 ;;
  3874                           
  3875                           	psect	text23
  3876   0018C6                     __ptext23:
  3877                           	callstack 0
  3878   0018C6                     _lcd_4bit_initialize:
  3879                           	callstack 25
  3880   0018C6                     
  3881                           ;ECU_layer/Char_lCD/ecu_chr_lcd.c: 27:     if(lcd_obj == ((void*)0))
  3882   0018C6  5048               	movf	lcd_4bit_initialize@lcd_obj^0,w,c
  3883   0018C8  1049               	iorwf	(lcd_4bit_initialize@lcd_obj+1)^0,w,c
  3884   0018CA  A4D8               	btfss	status,2,c
  3885   0018CC  EF6A  F00C         	goto	u1571
  3886   0018D0  EF6C  F00C         	goto	u1570
  3887   0018D4                     u1571:
  3888   0018D4  EF70  F00C         	goto	l2702
  3889   0018D8                     u1570:
  3890   0018D8                     
  3891                           ;ECU_layer/Char_lCD/ecu_chr_lcd.c: 28:     {;ECU_layer/Char_lCD/ecu_chr_lcd.c: 29:      
      +                             ret = (Std_ReturnType)0x00;
  3892   0018D8  0E00               	movlw	0
  3893   0018DA  6E4D               	movwf	lcd_4bit_initialize@ret^0,c
  3894                           
  3895                           ;ECU_layer/Char_lCD/ecu_chr_lcd.c: 30:     }
  3896   0018DC  EFFA  F00C         	goto	l2738
  3897   0018E0                     l2702:
  3898                           
  3899                           ;ECU_layer/Char_lCD/ecu_chr_lcd.c: 32:     {;ECU_layer/Char_lCD/ecu_chr_lcd.c: 33:      
      +                             ret = gpio_pin_initialize(&(lcd_obj->lcd_enable));
  3900   0018E0  0E04               	movlw	4
  3901   0018E2  2448               	addwf	lcd_4bit_initialize@lcd_obj^0,w,c
  3902   0018E4  6E3C               	movwf	gpio_pin_initialize@pin^0,c
  3903   0018E6  0E00               	movlw	0
  3904   0018E8  2049               	addwfc	(lcd_4bit_initialize@lcd_obj+1)^0,w,c
  3905   0018EA  6E3D               	movwf	(gpio_pin_initialize@pin+1)^0,c
  3906   0018EC  EC29  F011         	call	_gpio_pin_initialize	;wreg free
  3907   0018F0  6E4D               	movwf	lcd_4bit_initialize@ret^0,c
  3908                           
  3909                           ;ECU_layer/Char_lCD/ecu_chr_lcd.c: 34:         ret = gpio_pin_initialize(&(lcd_obj->lcd_
      +                          rs));
  3910   0018F2  0E05               	movlw	5
  3911   0018F4  2448               	addwf	lcd_4bit_initialize@lcd_obj^0,w,c
  3912   0018F6  6E3C               	movwf	gpio_pin_initialize@pin^0,c
  3913   0018F8  0E00               	movlw	0
  3914   0018FA  2049               	addwfc	(lcd_4bit_initialize@lcd_obj+1)^0,w,c
  3915   0018FC  6E3D               	movwf	(gpio_pin_initialize@pin+1)^0,c
  3916   0018FE  EC29  F011         	call	_gpio_pin_initialize	;wreg free
  3917   001902  6E4D               	movwf	lcd_4bit_initialize@ret^0,c
  3918   001904                     
  3919                           ;ECU_layer/Char_lCD/ecu_chr_lcd.c: 36:         for(int i=0;i<4;i++)
  3920   001904  0E00               	movlw	0
  3921   001906  6E4C               	movwf	(lcd_4bit_initialize@i+1)^0,c
  3922   001908  0E00               	movlw	0
  3923   00190A  6E4B               	movwf	lcd_4bit_initialize@i^0,c
  3924   00190C                     l2710:
  3925   00190C  504B               	movf	lcd_4bit_initialize@i^0,w,c
  3926   00190E  2448               	addwf	lcd_4bit_initialize@lcd_obj^0,w,c
  3927   001910  6E3C               	movwf	gpio_pin_initialize@pin^0,c
  3928   001912  504C               	movf	(lcd_4bit_initialize@i+1)^0,w,c
  3929   001914  2049               	addwfc	(lcd_4bit_initialize@lcd_obj+1)^0,w,c
  3930   001916  6E3D               	movwf	(gpio_pin_initialize@pin+1)^0,c
  3931   001918  EC29  F011         	call	_gpio_pin_initialize	;wreg free
  3932   00191C                     
  3933                           ;ECU_layer/Char_lCD/ecu_chr_lcd.c: 39:         }
  3934   00191C  4A4B               	infsnz	lcd_4bit_initialize@i^0,f,c
  3935   00191E  2A4C               	incf	(lcd_4bit_initialize@i+1)^0,f,c
  3936   001920  BE4C               	btfsc	(lcd_4bit_initialize@i+1)^0,7,c
  3937   001922  EF9C  F00C         	goto	u1581
  3938   001926  504C               	movf	(lcd_4bit_initialize@i+1)^0,w,c
  3939   001928  E109               	bnz	u1580
  3940   00192A  0E04               	movlw	4
  3941   00192C  5C4B               	subwf	lcd_4bit_initialize@i^0,w,c
  3942   00192E  A0D8               	btfss	status,0,c
  3943   001930  EF9C  F00C         	goto	u1581
  3944   001934  EF9E  F00C         	goto	u1580
  3945   001938                     u1581:
  3946   001938  EF86  F00C         	goto	l2710
  3947   00193C                     u1580:
  3948   00193C                     
  3949                           ;ECU_layer/Char_lCD/ecu_chr_lcd.c: 40:          _delay((unsigned long)((20)*(4000000UL/4
      +                          000.0)));
  3950   00193C  0E1A               	movlw	26
  3951   00193E  6E4A               	movwf	??_lcd_4bit_initialize^0,c
  3952   001940  0EF8               	movlw	248
  3953   001942                     u2667:
  3954   001942  2EE8               	decfsz	wreg,f,c
  3955   001944  D7FE               	bra	u2667
  3956   001946  2E4A               	decfsz	??_lcd_4bit_initialize^0,f,c
  3957   001948  D7FC               	bra	u2667
  3958   00194A  D000               	nop2	
  3959   00194C  C048  F044         	movff	lcd_4bit_initialize@lcd_obj,lcd_4bit_send_command@lcd_obj
  3960   001950  C049  F045         	movff	lcd_4bit_initialize@lcd_obj+1,lcd_4bit_send_command@lcd_obj+1
  3961   001954  0E38               	movlw	56
  3962   001956  6E46               	movwf	lcd_4bit_send_command@command^0,c
  3963   001958  EC7B  F010         	call	_lcd_4bit_send_command	;wreg free
  3964   00195C                     
  3965                           ;ECU_layer/Char_lCD/ecu_chr_lcd.c: 42:         _delay((unsigned long)((5)*(4000000UL/400
      +                          0.0)));
  3966   00195C  0E07               	movlw	7
  3967   00195E  6E4A               	movwf	??_lcd_4bit_initialize^0,c
  3968   001960  0E7D               	movlw	125
  3969   001962                     u2677:
  3970   001962  2EE8               	decfsz	wreg,f,c
  3971   001964  D7FE               	bra	u2677
  3972   001966  2E4A               	decfsz	??_lcd_4bit_initialize^0,f,c
  3973   001968  D7FC               	bra	u2677
  3974   00196A  F000               	nop	
  3975   00196C  C048  F044         	movff	lcd_4bit_initialize@lcd_obj,lcd_4bit_send_command@lcd_obj
  3976   001970  C049  F045         	movff	lcd_4bit_initialize@lcd_obj+1,lcd_4bit_send_command@lcd_obj+1
  3977   001974  0E38               	movlw	56
  3978   001976  6E46               	movwf	lcd_4bit_send_command@command^0,c
  3979   001978  EC7B  F010         	call	_lcd_4bit_send_command	;wreg free
  3980   00197C                     
  3981                           ;ECU_layer/Char_lCD/ecu_chr_lcd.c: 44:         _delay((unsigned long)((150)*(4000000UL/4
      +                          000000.0)));
  3982   00197C  0E32               	movlw	50
  3983   00197E                     u2687:
  3984   00197E  2EE8               	decfsz	wreg,f,c
  3985   001980  D7FE               	bra	u2687
  3986   001982  C048  F044         	movff	lcd_4bit_initialize@lcd_obj,lcd_4bit_send_command@lcd_obj
  3987   001986  C049  F045         	movff	lcd_4bit_initialize@lcd_obj+1,lcd_4bit_send_command@lcd_obj+1
  3988   00198A  0E38               	movlw	56
  3989   00198C  6E46               	movwf	lcd_4bit_send_command@command^0,c
  3990   00198E  EC7B  F010         	call	_lcd_4bit_send_command	;wreg free
  3991   001992  C048  F044         	movff	lcd_4bit_initialize@lcd_obj,lcd_4bit_send_command@lcd_obj
  3992   001996  C049  F045         	movff	lcd_4bit_initialize@lcd_obj+1,lcd_4bit_send_command@lcd_obj+1
  3993   00199A  0E01               	movlw	1
  3994   00199C  6E46               	movwf	lcd_4bit_send_command@command^0,c
  3995   00199E  EC7B  F010         	call	_lcd_4bit_send_command	;wreg free
  3996   0019A2  C048  F044         	movff	lcd_4bit_initialize@lcd_obj,lcd_4bit_send_command@lcd_obj
  3997   0019A6  C049  F045         	movff	lcd_4bit_initialize@lcd_obj+1,lcd_4bit_send_command@lcd_obj+1
  3998   0019AA  0E02               	movlw	2
  3999   0019AC  6E46               	movwf	lcd_4bit_send_command@command^0,c
  4000   0019AE  EC7B  F010         	call	_lcd_4bit_send_command	;wreg free
  4001   0019B2  C048  F044         	movff	lcd_4bit_initialize@lcd_obj,lcd_4bit_send_command@lcd_obj
  4002   0019B6  C049  F045         	movff	lcd_4bit_initialize@lcd_obj+1,lcd_4bit_send_command@lcd_obj+1
  4003   0019BA  0E06               	movlw	6
  4004   0019BC  6E46               	movwf	lcd_4bit_send_command@command^0,c
  4005   0019BE  EC7B  F010         	call	_lcd_4bit_send_command	;wreg free
  4006   0019C2  C048  F044         	movff	lcd_4bit_initialize@lcd_obj,lcd_4bit_send_command@lcd_obj
  4007   0019C6  C049  F045         	movff	lcd_4bit_initialize@lcd_obj+1,lcd_4bit_send_command@lcd_obj+1
  4008   0019CA  0E0C               	movlw	12
  4009   0019CC  6E46               	movwf	lcd_4bit_send_command@command^0,c
  4010   0019CE  EC7B  F010         	call	_lcd_4bit_send_command	;wreg free
  4011   0019D2  C048  F044         	movff	lcd_4bit_initialize@lcd_obj,lcd_4bit_send_command@lcd_obj
  4012   0019D6  C049  F045         	movff	lcd_4bit_initialize@lcd_obj+1,lcd_4bit_send_command@lcd_obj+1
  4013   0019DA  0E28               	movlw	40
  4014   0019DC  6E46               	movwf	lcd_4bit_send_command@command^0,c
  4015   0019DE  EC7B  F010         	call	_lcd_4bit_send_command	;wreg free
  4016   0019E2                     
  4017                           ;ECU_layer/Char_lCD/ecu_chr_lcd.c: 51:         ret = lcd_4bit_send_command(lcd_obj,0x80)
      +                          ;
  4018   0019E2  C048  F044         	movff	lcd_4bit_initialize@lcd_obj,lcd_4bit_send_command@lcd_obj
  4019   0019E6  C049  F045         	movff	lcd_4bit_initialize@lcd_obj+1,lcd_4bit_send_command@lcd_obj+1
  4020   0019EA  0E80               	movlw	128
  4021   0019EC  6E46               	movwf	lcd_4bit_send_command@command^0,c
  4022   0019EE  EC7B  F010         	call	_lcd_4bit_send_command	;wreg free
  4023   0019F2  6E4D               	movwf	lcd_4bit_initialize@ret^0,c
  4024   0019F4                     l2738:
  4025                           
  4026                           ;ECU_layer/Char_lCD/ecu_chr_lcd.c: 55:     return ret;
  4027   0019F4  504D               	movf	lcd_4bit_initialize@ret^0,w,c
  4028   0019F6  0012               	return		;funcret
  4029   0019F8                     __end_of_lcd_4bit_initialize:
  4030                           	callstack 0
  4031                           
  4032 ;; *************** function _lcd_4bit_send_command *****************
  4033 ;; Defined at:
  4034 ;;		line 66 in file "ECU_layer/Char_lCD/ecu_chr_lcd.c"
  4035 ;; Parameters:    Size  Location     Type
  4036 ;;  lcd_obj         2   18[COMRAM] PTR const struct .
  4037 ;;		 -> lcd_1(6), 
  4038 ;;  command         1   20[COMRAM] unsigned char 
  4039 ;; Auto vars:     Size  Location     Type
  4040 ;;  ret             1   21[COMRAM] unsigned char 
  4041 ;; Return value:  Size  Location     Type
  4042 ;;                  1    wreg      unsigned char 
  4043 ;; Registers used:
  4044 ;;		wreg, fsr2l, fsr2h, status,2, status,0, prodl, prodh, cstack
  4045 ;; Tracked objects:
  4046 ;;		On entry : 0/0
  4047 ;;		On exit  : 0/0
  4048 ;;		Unchanged: 0/0
  4049 ;; Data sizes:     COMRAM   BANK0   BANK1   BANK2   BANK3   BANK4   BANK5   BANK6   BANK7   BANK8   BANK9  BANK10  BANK1
      +1  BANK12  BANK13  BANK14  BANK15
  4050 ;;      Params:         3       0       0       0       0       0       0       0       0       0       0       0       
      +0       0       0       0       0
  4051 ;;      Locals:         1       0       0       0       0       0       0       0       0       0       0       0       
      +0       0       0       0       0
  4052 ;;      Temps:          0       0       0       0       0       0       0       0       0       0       0       0       
      +0       0       0       0       0
  4053 ;;      Totals:         4       0       0       0       0       0       0       0       0       0       0       0       
      +0       0       0       0       0
  4054 ;;Total ram usage:        4 bytes
  4055 ;; Hardware stack levels used: 1
  4056 ;; Hardware stack levels required when called: 2
  4057 ;; This function calls:
  4058 ;;		_gpio_pin_write_logic
  4059 ;;		_lcd_4bit_send_enable
  4060 ;;		_lcd_send_4bit
  4061 ;; This function is called by:
  4062 ;;		_lcd_4bit_initialize
  4063 ;;		_lcd_4bit_set_cursor
  4064 ;;		_main
  4065 ;;		_loading
  4066 ;;		_lcd_4bit_send_custome_chr
  4067 ;; This function uses a non-reentrant model
  4068 ;;
  4069                           
  4070                           	psect	text24
  4071   0020F6                     __ptext24:
  4072                           	callstack 0
  4073   0020F6                     _lcd_4bit_send_command:
  4074                           	callstack 25
  4075   0020F6                     
  4076                           ;ECU_layer/Char_lCD/ecu_chr_lcd.c: 69:     if(lcd_obj == ((void*)0))
  4077   0020F6  5044               	movf	lcd_4bit_send_command@lcd_obj^0,w,c
  4078   0020F8  1045               	iorwf	(lcd_4bit_send_command@lcd_obj+1)^0,w,c
  4079   0020FA  A4D8               	btfss	status,2,c
  4080   0020FC  EF82  F010         	goto	u1551
  4081   002100  EF84  F010         	goto	u1550
  4082   002104                     u1551:
  4083   002104  EF88  F010         	goto	l2678
  4084   002108                     u1550:
  4085   002108                     
  4086                           ;ECU_layer/Char_lCD/ecu_chr_lcd.c: 70:     {;ECU_layer/Char_lCD/ecu_chr_lcd.c: 71:      
      +                             ret = (Std_ReturnType)0x00;
  4087   002108  0E00               	movlw	0
  4088   00210A  6E47               	movwf	lcd_4bit_send_command@ret^0,c
  4089                           
  4090                           ;ECU_layer/Char_lCD/ecu_chr_lcd.c: 72:     }
  4091   00210C  EFB4  F010         	goto	l2680
  4092   002110                     l2678:
  4093                           
  4094                           ;ECU_layer/Char_lCD/ecu_chr_lcd.c: 74:     {;ECU_layer/Char_lCD/ecu_chr_lcd.c: 75:      
      +                             ret = gpio_pin_write_logic(&(lcd_obj->lcd_rs),GPIO_LOW);
  4095   002110  0E05               	movlw	5
  4096   002112  2444               	addwf	lcd_4bit_send_command@lcd_obj^0,w,c
  4097   002114  6E32               	movwf	gpio_pin_write_logic@pin^0,c
  4098   002116  0E00               	movlw	0
  4099   002118  2045               	addwfc	(lcd_4bit_send_command@lcd_obj+1)^0,w,c
  4100   00211A  6E33               	movwf	(gpio_pin_write_logic@pin+1)^0,c
  4101   00211C  0E00               	movlw	0
  4102   00211E  6E34               	movwf	gpio_pin_write_logic@log^0,c
  4103   002120  ECFC  F00C         	call	_gpio_pin_write_logic	;wreg free
  4104   002124  6E47               	movwf	lcd_4bit_send_command@ret^0,c
  4105                           
  4106                           ;ECU_layer/Char_lCD/ecu_chr_lcd.c: 76:         ret = lcd_send_4bit(lcd_obj,(command>>4))
      +                          ;
  4107   002126  C044  F03C         	movff	lcd_4bit_send_command@lcd_obj,lcd_send_4bit@lcd_obj
  4108   00212A  C045  F03D         	movff	lcd_4bit_send_command@lcd_obj+1,lcd_send_4bit@lcd_obj+1
  4109   00212E  3846               	swapf	lcd_4bit_send_command@command^0,w,c
  4110   002130  0B0F               	andlw	15
  4111   002132  6E3E               	movwf	lcd_send_4bit@data_command^0,c
  4112   002134  ECB6  F010         	call	_lcd_send_4bit	;wreg free
  4113   002138  6E47               	movwf	lcd_4bit_send_command@ret^0,c
  4114                           
  4115                           ;ECU_layer/Char_lCD/ecu_chr_lcd.c: 77:         ret = lcd_4bit_send_enable(lcd_obj);
  4116   00213A  C044  F03C         	movff	lcd_4bit_send_command@lcd_obj,lcd_4bit_send_enable@lcd_obj
  4117   00213E  C045  F03D         	movff	lcd_4bit_send_command@lcd_obj+1,lcd_4bit_send_enable@lcd_obj+1
  4118   002142  EC8C  F011         	call	_lcd_4bit_send_enable	;wreg free
  4119   002146  6E47               	movwf	lcd_4bit_send_command@ret^0,c
  4120                           
  4121                           ;ECU_layer/Char_lCD/ecu_chr_lcd.c: 78:         ret = lcd_send_4bit(lcd_obj,command);
  4122   002148  C044  F03C         	movff	lcd_4bit_send_command@lcd_obj,lcd_send_4bit@lcd_obj
  4123   00214C  C045  F03D         	movff	lcd_4bit_send_command@lcd_obj+1,lcd_send_4bit@lcd_obj+1
  4124   002150  C046  F03E         	movff	lcd_4bit_send_command@command,lcd_send_4bit@data_command
  4125   002154  ECB6  F010         	call	_lcd_send_4bit	;wreg free
  4126   002158  6E47               	movwf	lcd_4bit_send_command@ret^0,c
  4127                           
  4128                           ;ECU_layer/Char_lCD/ecu_chr_lcd.c: 79:         ret = lcd_4bit_send_enable(lcd_obj);
  4129   00215A  C044  F03C         	movff	lcd_4bit_send_command@lcd_obj,lcd_4bit_send_enable@lcd_obj
  4130   00215E  C045  F03D         	movff	lcd_4bit_send_command@lcd_obj+1,lcd_4bit_send_enable@lcd_obj+1
  4131   002162  EC8C  F011         	call	_lcd_4bit_send_enable	;wreg free
  4132   002166  6E47               	movwf	lcd_4bit_send_command@ret^0,c
  4133   002168                     l2680:
  4134                           
  4135                           ;ECU_layer/Char_lCD/ecu_chr_lcd.c: 81:     return ret;
  4136   002168  5047               	movf	lcd_4bit_send_command@ret^0,w,c
  4137   00216A  0012               	return		;funcret
  4138   00216C                     __end_of_lcd_4bit_send_command:
  4139                           	callstack 0
  4140                           
  4141 ;; *************** function _lcd_send_4bit *****************
  4142 ;; Defined at:
  4143 ;;		line 485 in file "ECU_layer/Char_lCD/ecu_chr_lcd.c"
  4144 ;; Parameters:    Size  Location     Type
  4145 ;;  lcd_obj         2   10[COMRAM] PTR const struct .
  4146 ;;		 -> lcd_1(6), 
  4147 ;;  data_command    1   12[COMRAM] unsigned char 
  4148 ;; Auto vars:     Size  Location     Type
  4149 ;;  i               2   16[COMRAM] int 
  4150 ;;  ret             1   15[COMRAM] unsigned char 
  4151 ;; Return value:  Size  Location     Type
  4152 ;;                  1    wreg      unsigned char 
  4153 ;; Registers used:
  4154 ;;		wreg, fsr2l, fsr2h, status,2, status,0, prodl, prodh, cstack
  4155 ;; Tracked objects:
  4156 ;;		On entry : 0/0
  4157 ;;		On exit  : 0/0
  4158 ;;		Unchanged: 0/0
  4159 ;; Data sizes:     COMRAM   BANK0   BANK1   BANK2   BANK3   BANK4   BANK5   BANK6   BANK7   BANK8   BANK9  BANK10  BANK1
      +1  BANK12  BANK13  BANK14  BANK15
  4160 ;;      Params:         3       0       0       0       0       0       0       0       0       0       0       0       
      +0       0       0       0       0
  4161 ;;      Locals:         3       0       0       0       0       0       0       0       0       0       0       0       
      +0       0       0       0       0
  4162 ;;      Temps:          2       0       0       0       0       0       0       0       0       0       0       0       
      +0       0       0       0       0
  4163 ;;      Totals:         8       0       0       0       0       0       0       0       0       0       0       0       
      +0       0       0       0       0
  4164 ;;Total ram usage:        8 bytes
  4165 ;; Hardware stack levels used: 1
  4166 ;; Hardware stack levels required when called: 1
  4167 ;; This function calls:
  4168 ;;		_gpio_pin_write_logic
  4169 ;; This function is called by:
  4170 ;;		_lcd_4bit_send_command
  4171 ;;		_lcd_4bit_send_char
  4172 ;; This function uses a non-reentrant model
  4173 ;;
  4174                           
  4175                           	psect	text25
  4176   00216C                     __ptext25:
  4177                           	callstack 0
  4178   00216C                     _lcd_send_4bit:
  4179                           	callstack 25
  4180   00216C                     
  4181                           ;ECU_layer/Char_lCD/ecu_chr_lcd.c: 488:     if(lcd_obj == ((void*)0))
  4182   00216C  503C               	movf	lcd_send_4bit@lcd_obj^0,w,c
  4183   00216E  103D               	iorwf	(lcd_send_4bit@lcd_obj+1)^0,w,c
  4184   002170  A4D8               	btfss	status,2,c
  4185   002172  EFBD  F010         	goto	u1431
  4186   002176  EFBF  F010         	goto	u1430
  4187   00217A                     u1431:
  4188   00217A  EFC3  F010         	goto	l2604
  4189   00217E                     u1430:
  4190   00217E                     
  4191                           ;ECU_layer/Char_lCD/ecu_chr_lcd.c: 489:     {;ECU_layer/Char_lCD/ecu_chr_lcd.c: 490:    
      +                               ret = (Std_ReturnType)0x00;
  4192   00217E  0E00               	movlw	0
  4193   002180  6E41               	movwf	lcd_send_4bit@ret^0,c
  4194                           
  4195                           ;ECU_layer/Char_lCD/ecu_chr_lcd.c: 491:     }
  4196   002182  EFEF  F010         	goto	l2616
  4197   002186                     l2604:
  4198                           
  4199                           ;ECU_layer/Char_lCD/ecu_chr_lcd.c: 493:     {;ECU_layer/Char_lCD/ecu_chr_lcd.c: 494:    
      +                               for(int i=0;i<4;i++)
  4200   002186  0E00               	movlw	0
  4201   002188  6E43               	movwf	(lcd_send_4bit@i+1)^0,c
  4202   00218A  0E00               	movlw	0
  4203   00218C  6E42               	movwf	lcd_send_4bit@i^0,c
  4204   00218E                     l2610:
  4205                           
  4206                           ;ECU_layer/Char_lCD/ecu_chr_lcd.c: 495:         {;ECU_layer/Char_lCD/ecu_chr_lcd.c: 496:
      +                                       ret = gpio_pin_write_logic(&(lcd_obj->lcd_data[i]),(data_command >> i) & (u
      +                          int8)0x01);
  4207   00218E  5042               	movf	lcd_send_4bit@i^0,w,c
  4208   002190  243C               	addwf	lcd_send_4bit@lcd_obj^0,w,c
  4209   002192  6E32               	movwf	gpio_pin_write_logic@pin^0,c
  4210   002194  5043               	movf	(lcd_send_4bit@i+1)^0,w,c
  4211   002196  203D               	addwfc	(lcd_send_4bit@lcd_obj+1)^0,w,c
  4212   002198  6E33               	movwf	(gpio_pin_write_logic@pin+1)^0,c
  4213   00219A  C042  F03F         	movff	lcd_send_4bit@i,??_lcd_send_4bit
  4214   00219E  C03E  F040         	movff	lcd_send_4bit@data_command,??_lcd_send_4bit+1
  4215   0021A2  2A3F               	incf	??_lcd_send_4bit^0,f,c
  4216   0021A4  EFD6  F010         	goto	u1444
  4217   0021A8                     u1445:
  4218   0021A8  90D8               	bcf	status,0,c
  4219   0021AA  3240               	rrcf	(??_lcd_send_4bit+1)^0,f,c
  4220   0021AC                     u1444:
  4221   0021AC  2E3F               	decfsz	??_lcd_send_4bit^0,f,c
  4222   0021AE  EFD4  F010         	goto	u1445
  4223   0021B2  5040               	movf	(??_lcd_send_4bit+1)^0,w,c
  4224   0021B4  0B01               	andlw	1
  4225   0021B6  6E34               	movwf	gpio_pin_write_logic@log^0,c
  4226   0021B8  ECFC  F00C         	call	_gpio_pin_write_logic	;wreg free
  4227   0021BC  6E41               	movwf	lcd_send_4bit@ret^0,c
  4228   0021BE                     
  4229                           ;ECU_layer/Char_lCD/ecu_chr_lcd.c: 497:         }
  4230   0021BE  4A42               	infsnz	lcd_send_4bit@i^0,f,c
  4231   0021C0  2A43               	incf	(lcd_send_4bit@i+1)^0,f,c
  4232   0021C2  BE43               	btfsc	(lcd_send_4bit@i+1)^0,7,c
  4233   0021C4  EFED  F010         	goto	u1451
  4234   0021C8  5043               	movf	(lcd_send_4bit@i+1)^0,w,c
  4235   0021CA  E109               	bnz	u1450
  4236   0021CC  0E04               	movlw	4
  4237   0021CE  5C42               	subwf	lcd_send_4bit@i^0,w,c
  4238   0021D0  A0D8               	btfss	status,0,c
  4239   0021D2  EFED  F010         	goto	u1451
  4240   0021D6  EFEF  F010         	goto	u1450
  4241   0021DA                     u1451:
  4242   0021DA  EFC7  F010         	goto	l2610
  4243   0021DE                     u1450:
  4244   0021DE                     l2616:
  4245                           
  4246                           ;ECU_layer/Char_lCD/ecu_chr_lcd.c: 500:     return ret;
  4247   0021DE  5041               	movf	lcd_send_4bit@ret^0,w,c
  4248   0021E0  0012               	return		;funcret
  4249   0021E2                     __end_of_lcd_send_4bit:
  4250                           	callstack 0
  4251                           
  4252 ;; *************** function _lcd_4bit_send_enable *****************
  4253 ;; Defined at:
  4254 ;;		line 503 in file "ECU_layer/Char_lCD/ecu_chr_lcd.c"
  4255 ;; Parameters:    Size  Location     Type
  4256 ;;  lcd_obj         2   10[COMRAM] PTR const struct .
  4257 ;;		 -> lcd_1(6), 
  4258 ;; Auto vars:     Size  Location     Type
  4259 ;;  ret             1   12[COMRAM] unsigned char 
  4260 ;; Return value:  Size  Location     Type
  4261 ;;                  1    wreg      unsigned char 
  4262 ;; Registers used:
  4263 ;;		wreg, fsr2l, fsr2h, status,2, status,0, prodl, prodh, cstack
  4264 ;; Tracked objects:
  4265 ;;		On entry : 0/0
  4266 ;;		On exit  : 0/0
  4267 ;;		Unchanged: 0/0
  4268 ;; Data sizes:     COMRAM   BANK0   BANK1   BANK2   BANK3   BANK4   BANK5   BANK6   BANK7   BANK8   BANK9  BANK10  BANK1
      +1  BANK12  BANK13  BANK14  BANK15
  4269 ;;      Params:         2       0       0       0       0       0       0       0       0       0       0       0       
      +0       0       0       0       0
  4270 ;;      Locals:         1       0       0       0       0       0       0       0       0       0       0       0       
      +0       0       0       0       0
  4271 ;;      Temps:          0       0       0       0       0       0       0       0       0       0       0       0       
      +0       0       0       0       0
  4272 ;;      Totals:         3       0       0       0       0       0       0       0       0       0       0       0       
      +0       0       0       0       0
  4273 ;;Total ram usage:        3 bytes
  4274 ;; Hardware stack levels used: 1
  4275 ;; Hardware stack levels required when called: 1
  4276 ;; This function calls:
  4277 ;;		_gpio_pin_write_logic
  4278 ;; This function is called by:
  4279 ;;		_lcd_4bit_send_command
  4280 ;;		_lcd_4bit_send_char
  4281 ;; This function uses a non-reentrant model
  4282 ;;
  4283                           
  4284                           	psect	text26
  4285   002318                     __ptext26:
  4286                           	callstack 0
  4287   002318                     _lcd_4bit_send_enable:
  4288                           	callstack 25
  4289   002318                     
  4290                           ;ECU_layer/Char_lCD/ecu_chr_lcd.c: 506:     if(lcd_obj == ((void*)0))
  4291   002318  503C               	movf	lcd_4bit_send_enable@lcd_obj^0,w,c
  4292   00231A  103D               	iorwf	(lcd_4bit_send_enable@lcd_obj+1)^0,w,c
  4293   00231C  A4D8               	btfss	status,2,c
  4294   00231E  EF93  F011         	goto	u1461
  4295   002322  EF95  F011         	goto	u1460
  4296   002326                     u1461:
  4297   002326  EF99  F011         	goto	l2626
  4298   00232A                     u1460:
  4299   00232A                     
  4300                           ;ECU_layer/Char_lCD/ecu_chr_lcd.c: 507:     {;ECU_layer/Char_lCD/ecu_chr_lcd.c: 508:    
      +                               ret = (Std_ReturnType)0x00;
  4301   00232A  0E00               	movlw	0
  4302   00232C  6E3E               	movwf	lcd_4bit_send_enable@ret^0,c
  4303                           
  4304                           ;ECU_layer/Char_lCD/ecu_chr_lcd.c: 509:     }
  4305   00232E  EFB1  F011         	goto	l2630
  4306   002332                     l2626:
  4307   002332  0E04               	movlw	4
  4308   002334  243C               	addwf	lcd_4bit_send_enable@lcd_obj^0,w,c
  4309   002336  6E32               	movwf	gpio_pin_write_logic@pin^0,c
  4310   002338  0E00               	movlw	0
  4311   00233A  203D               	addwfc	(lcd_4bit_send_enable@lcd_obj+1)^0,w,c
  4312   00233C  6E33               	movwf	(gpio_pin_write_logic@pin+1)^0,c
  4313   00233E  0E01               	movlw	1
  4314   002340  6E34               	movwf	gpio_pin_write_logic@log^0,c
  4315   002342  ECFC  F00C         	call	_gpio_pin_write_logic	;wreg free
  4316   002346                     
  4317                           ;ECU_layer/Char_lCD/ecu_chr_lcd.c: 513:         _delay((unsigned long)((5)*(4000000UL/40
      +                          00000.0)));
  4318   002346  D000               	nop2		;2 cycle nop
  4319   002348  D000               	nop2		;2 cycle nop
  4320   00234A  F000               	nop	
  4321                           
  4322                           ;ECU_layer/Char_lCD/ecu_chr_lcd.c: 514:         ret = gpio_pin_write_logic(&(lcd_obj->lc
      +                          d_enable),GPIO_LOW);
  4323   00234C  0E04               	movlw	4
  4324   00234E  243C               	addwf	lcd_4bit_send_enable@lcd_obj^0,w,c
  4325   002350  6E32               	movwf	gpio_pin_write_logic@pin^0,c
  4326   002352  0E00               	movlw	0
  4327   002354  203D               	addwfc	(lcd_4bit_send_enable@lcd_obj+1)^0,w,c
  4328   002356  6E33               	movwf	(gpio_pin_write_logic@pin+1)^0,c
  4329   002358  0E00               	movlw	0
  4330   00235A  6E34               	movwf	gpio_pin_write_logic@log^0,c
  4331   00235C  ECFC  F00C         	call	_gpio_pin_write_logic	;wreg free
  4332   002360  6E3E               	movwf	lcd_4bit_send_enable@ret^0,c
  4333   002362                     l2630:
  4334                           
  4335                           ;ECU_layer/Char_lCD/ecu_chr_lcd.c: 517:     return ret;
  4336   002362  503E               	movf	lcd_4bit_send_enable@ret^0,w,c
  4337   002364  0012               	return		;funcret
  4338   002366                     __end_of_lcd_4bit_send_enable:
  4339                           	callstack 0
  4340                           
  4341 ;; *************** function _keypad_initialize *****************
  4342 ;; Defined at:
  4343 ;;		line 28 in file "ECU_layer/key_pad/ecu_key_pad.c"
  4344 ;; Parameters:    Size  Location     Type
  4345 ;;  keypad          2   14[COMRAM] PTR const struct .
  4346 ;;		 -> kp1(7), 
  4347 ;; Auto vars:     Size  Location     Type
  4348 ;;  i               1   20[COMRAM] unsigned char 
  4349 ;;  i               1   19[COMRAM] unsigned char 
  4350 ;;  ret             1   18[COMRAM] unsigned char 
  4351 ;; Return value:  Size  Location     Type
  4352 ;;                  1    wreg      unsigned char 
  4353 ;; Registers used:
  4354 ;;		wreg, fsr2l, fsr2h, status,2, status,0, prodl, prodh, cstack
  4355 ;; Tracked objects:
  4356 ;;		On entry : 0/0
  4357 ;;		On exit  : 0/0
  4358 ;;		Unchanged: 0/0
  4359 ;; Data sizes:     COMRAM   BANK0   BANK1   BANK2   BANK3   BANK4   BANK5   BANK6   BANK7   BANK8   BANK9  BANK10  BANK1
      +1  BANK12  BANK13  BANK14  BANK15
  4360 ;;      Params:         2       0       0       0       0       0       0       0       0       0       0       0       
      +0       0       0       0       0
  4361 ;;      Locals:         3       0       0       0       0       0       0       0       0       0       0       0       
      +0       0       0       0       0
  4362 ;;      Temps:          2       0       0       0       0       0       0       0       0       0       0       0       
      +0       0       0       0       0
  4363 ;;      Totals:         7       0       0       0       0       0       0       0       0       0       0       0       
      +0       0       0       0       0
  4364 ;;Total ram usage:        7 bytes
  4365 ;; Hardware stack levels used: 1
  4366 ;; Hardware stack levels required when called: 2
  4367 ;; This function calls:
  4368 ;;		_gpio_pin_direction_initialize
  4369 ;;		_gpio_pin_initialize
  4370 ;; This function is called by:
  4371 ;;		_ecu_initialize
  4372 ;; This function uses a non-reentrant model
  4373 ;;
  4374                           
  4375                           	psect	text27
  4376   002008                     __ptext27:
  4377                           	callstack 0
  4378   002008                     _keypad_initialize:
  4379                           	callstack 26
  4380   002008                     
  4381                           ;ECU_layer/key_pad/ecu_key_pad.c: 31:     if(keypad==((void*)0))
  4382   002008  5040               	movf	keypad_initialize@keypad^0,w,c
  4383   00200A  1041               	iorwf	(keypad_initialize@keypad+1)^0,w,c
  4384   00200C  A4D8               	btfss	status,2,c
  4385   00200E  EF0B  F010         	goto	u1641
  4386   002012  EF0D  F010         	goto	u1640
  4387   002016                     u1641:
  4388   002016  EF11  F010         	goto	l2804
  4389   00201A                     u1640:
  4390   00201A                     
  4391                           ;ECU_layer/key_pad/ecu_key_pad.c: 32:     {;ECU_layer/key_pad/ecu_key_pad.c: 33:        
      +                           ret = (Std_ReturnType)0x00;
  4392   00201A  0E00               	movlw	0
  4393   00201C  6E44               	movwf	keypad_initialize@ret^0,c
  4394                           
  4395                           ;ECU_layer/key_pad/ecu_key_pad.c: 34:     }
  4396   00201E  EF3E  F010         	goto	l2828
  4397   002022                     l2804:
  4398                           
  4399                           ;ECU_layer/key_pad/ecu_key_pad.c: 36:     {;ECU_layer/key_pad/ecu_key_pad.c: 37:        
      +                           for(uint8 i=0;i<4;i++)
  4400   002022  0E00               	movlw	0
  4401   002024  6E45               	movwf	keypad_initialize@i^0,c
  4402   002026                     l2810:
  4403   002026  5045               	movf	keypad_initialize@i^0,w,c
  4404   002028  2440               	addwf	keypad_initialize@keypad^0,w,c
  4405   00202A  6E3C               	movwf	gpio_pin_initialize@pin^0,c
  4406   00202C  0E00               	movlw	0
  4407   00202E  2041               	addwfc	(keypad_initialize@keypad+1)^0,w,c
  4408   002030  6E3D               	movwf	(gpio_pin_initialize@pin+1)^0,c
  4409   002032  EC29  F011         	call	_gpio_pin_initialize	;wreg free
  4410   002036                     
  4411                           ;ECU_layer/key_pad/ecu_key_pad.c: 40:         }
  4412   002036  2A45               	incf	keypad_initialize@i^0,f,c
  4413   002038  0E03               	movlw	3
  4414   00203A  6445               	cpfsgt	keypad_initialize@i^0,c
  4415   00203C  EF22  F010         	goto	u1651
  4416   002040  EF24  F010         	goto	u1650
  4417   002044                     u1651:
  4418   002044  EF13  F010         	goto	l2810
  4419   002048                     u1650:
  4420   002048                     
  4421                           ;ECU_layer/key_pad/ecu_key_pad.c: 41:         for(uint8 i=0;i<4;i++)
  4422   002048  0E00               	movlw	0
  4423   00204A  6E46               	movwf	keypad_initialize@i_479^0,c
  4424   00204C                     l2822:
  4425                           
  4426                           ;ECU_layer/key_pad/ecu_key_pad.c: 42:         {;ECU_layer/key_pad/ecu_key_pad.c: 43:    
      +                                   ret = gpio_pin_direction_initialize(&(keypad->keypad_coulmns_pins[i]));
  4427   00204C  5046               	movf	keypad_initialize@i_479^0,w,c
  4428   00204E  2440               	addwf	keypad_initialize@keypad^0,w,c
  4429   002050  6E42               	movwf	??_keypad_initialize^0,c
  4430   002052  0E00               	movlw	0
  4431   002054  2041               	addwfc	(keypad_initialize@keypad+1)^0,w,c
  4432   002056  6E43               	movwf	(??_keypad_initialize+1)^0,c
  4433   002058  0E04               	movlw	4
  4434   00205A  2442               	addwf	??_keypad_initialize^0,w,c
  4435   00205C  6E32               	movwf	gpio_pin_direction_initialize@pin^0,c
  4436   00205E  0E00               	movlw	0
  4437   002060  2043               	addwfc	(??_keypad_initialize+1)^0,w,c
  4438   002062  6E33               	movwf	(gpio_pin_direction_initialize@pin+1)^0,c
  4439   002064  ECC1  F00B         	call	_gpio_pin_direction_initialize	;wreg free
  4440   002068  6E44               	movwf	keypad_initialize@ret^0,c
  4441   00206A                     
  4442                           ;ECU_layer/key_pad/ecu_key_pad.c: 44:         }
  4443   00206A  2A46               	incf	keypad_initialize@i_479^0,f,c
  4444   00206C  0E03               	movlw	3
  4445   00206E  6446               	cpfsgt	keypad_initialize@i_479^0,c
  4446   002070  EF3C  F010         	goto	u1661
  4447   002074  EF3E  F010         	goto	u1660
  4448   002078                     u1661:
  4449   002078  EF26  F010         	goto	l2822
  4450   00207C                     u1660:
  4451   00207C                     l2828:
  4452                           
  4453                           ;ECU_layer/key_pad/ecu_key_pad.c: 47:      return ret;
  4454   00207C  5044               	movf	keypad_initialize@ret^0,w,c
  4455   00207E  0012               	return		;funcret
  4456   002080                     __end_of_keypad_initialize:
  4457                           	callstack 0
  4458                           
  4459 ;; *************** function _dc_motor_initialize *****************
  4460 ;; Defined at:
  4461 ;;		line 20 in file "ECU_layer/DC_Motor/ecu_Dc_motor.c"
  4462 ;; Parameters:    Size  Location     Type
  4463 ;;  dc_motor        2   14[COMRAM] PTR const struct .
  4464 ;;		 -> motor_1(2), 
  4465 ;; Auto vars:     Size  Location     Type
  4466 ;;  ret             1   16[COMRAM] unsigned char 
  4467 ;; Return value:  Size  Location     Type
  4468 ;;                  1    wreg      unsigned char 
  4469 ;; Registers used:
  4470 ;;		wreg, fsr2l, fsr2h, status,2, status,0, prodl, prodh, cstack
  4471 ;; Tracked objects:
  4472 ;;		On entry : 0/0
  4473 ;;		On exit  : 0/0
  4474 ;;		Unchanged: 0/0
  4475 ;; Data sizes:     COMRAM   BANK0   BANK1   BANK2   BANK3   BANK4   BANK5   BANK6   BANK7   BANK8   BANK9  BANK10  BANK1
      +1  BANK12  BANK13  BANK14  BANK15
  4476 ;;      Params:         2       0       0       0       0       0       0       0       0       0       0       0       
      +0       0       0       0       0
  4477 ;;      Locals:         1       0       0       0       0       0       0       0       0       0       0       0       
      +0       0       0       0       0
  4478 ;;      Temps:          0       0       0       0       0       0       0       0       0       0       0       0       
      +0       0       0       0       0
  4479 ;;      Totals:         3       0       0       0       0       0       0       0       0       0       0       0       
      +0       0       0       0       0
  4480 ;;Total ram usage:        3 bytes
  4481 ;; Hardware stack levels used: 1
  4482 ;; Hardware stack levels required when called: 2
  4483 ;; This function calls:
  4484 ;;		_gpio_pin_initialize
  4485 ;; This function is called by:
  4486 ;;		_ecu_initialize
  4487 ;; This function uses a non-reentrant model
  4488 ;;
  4489                           
  4490                           	psect	text28
  4491   002502                     __ptext28:
  4492                           	callstack 0
  4493   002502                     _dc_motor_initialize:
  4494                           	callstack 26
  4495   002502                     
  4496                           ;ECU_layer/DC_Motor/ecu_Dc_motor.c: 23:     if(dc_motor == ((void*)0))
  4497   002502  5040               	movf	dc_motor_initialize@dc_motor^0,w,c
  4498   002504  1041               	iorwf	(dc_motor_initialize@dc_motor+1)^0,w,c
  4499   002506  A4D8               	btfss	status,2,c
  4500   002508  EF88  F012         	goto	u1631
  4501   00250C  EF8A  F012         	goto	u1630
  4502   002510                     u1631:
  4503   002510  EF8E  F012         	goto	l2792
  4504   002514                     u1630:
  4505   002514                     
  4506                           ;ECU_layer/DC_Motor/ecu_Dc_motor.c: 24:     {;ECU_layer/DC_Motor/ecu_Dc_motor.c: 25:    
      +                               ret = (Std_ReturnType)0x00;
  4507   002514  0E00               	movlw	0
  4508   002516  6E42               	movwf	dc_motor_initialize@ret^0,c
  4509                           
  4510                           ;ECU_layer/DC_Motor/ecu_Dc_motor.c: 26:     }
  4511   002518  EF9E  F012         	goto	l2794
  4512   00251C                     l2792:
  4513                           
  4514                           ;ECU_layer/DC_Motor/ecu_Dc_motor.c: 28:     {;ECU_layer/DC_Motor/ecu_Dc_motor.c: 31:    
      +                               ret = gpio_pin_initialize(&(dc_motor->dc_motor_pin[0]));
  4515   00251C  C040  F03C         	movff	dc_motor_initialize@dc_motor,gpio_pin_initialize@pin
  4516   002520  C041  F03D         	movff	dc_motor_initialize@dc_motor+1,gpio_pin_initialize@pin+1
  4517   002524  EC29  F011         	call	_gpio_pin_initialize	;wreg free
  4518   002528  6E42               	movwf	dc_motor_initialize@ret^0,c
  4519                           
  4520                           ;ECU_layer/DC_Motor/ecu_Dc_motor.c: 32:         ret = gpio_pin_initialize(&(dc_motor->dc
      +                          _motor_pin[1]));
  4521   00252A  0E01               	movlw	1
  4522   00252C  2440               	addwf	dc_motor_initialize@dc_motor^0,w,c
  4523   00252E  6E3C               	movwf	gpio_pin_initialize@pin^0,c
  4524   002530  0E00               	movlw	0
  4525   002532  2041               	addwfc	(dc_motor_initialize@dc_motor+1)^0,w,c
  4526   002534  6E3D               	movwf	(gpio_pin_initialize@pin+1)^0,c
  4527   002536  EC29  F011         	call	_gpio_pin_initialize	;wreg free
  4528   00253A  6E42               	movwf	dc_motor_initialize@ret^0,c
  4529   00253C                     l2794:
  4530                           
  4531                           ;ECU_layer/DC_Motor/ecu_Dc_motor.c: 34:     return ret;
  4532   00253C  5042               	movf	dc_motor_initialize@ret^0,w,c
  4533   00253E  0012               	return		;funcret
  4534   002540                     __end_of_dc_motor_initialize:
  4535                           	callstack 0
  4536                           
  4537 ;; *************** function _gpio_pin_initialize *****************
  4538 ;; Defined at:
  4539 ;;		line 146 in file "MCAL_layer/GPIO/hal_gpio.c"
  4540 ;; Parameters:    Size  Location     Type
  4541 ;;  pin             2   10[COMRAM] PTR const struct .
  4542 ;;		 -> motor_1.dc_motor_pin(2), motor_1(2), lcd_1.lcd_data(4), lcd_1(6), 
  4543 ;;		 -> kp1.keypad_ROWS_pins(4), kp1(7), led_initialize@pin_obj(1), relay_initialize@relay_pin(1), 
  4544 ;; Auto vars:     Size  Location     Type
  4545 ;;  ret             1   13[COMRAM] unsigned char 
  4546 ;; Return value:  Size  Location     Type
  4547 ;;                  1    wreg      unsigned char 
  4548 ;; Registers used:
  4549 ;;		wreg, fsr2l, fsr2h, status,2, status,0, prodl, prodh, cstack
  4550 ;; Tracked objects:
  4551 ;;		On entry : 0/0
  4552 ;;		On exit  : 0/0
  4553 ;;		Unchanged: 0/0
  4554 ;; Data sizes:     COMRAM   BANK0   BANK1   BANK2   BANK3   BANK4   BANK5   BANK6   BANK7   BANK8   BANK9  BANK10  BANK1
      +1  BANK12  BANK13  BANK14  BANK15
  4555 ;;      Params:         2       0       0       0       0       0       0       0       0       0       0       0       
      +0       0       0       0       0
  4556 ;;      Locals:         1       0       0       0       0       0       0       0       0       0       0       0       
      +0       0       0       0       0
  4557 ;;      Temps:          1       0       0       0       0       0       0       0       0       0       0       0       
      +0       0       0       0       0
  4558 ;;      Totals:         4       0       0       0       0       0       0       0       0       0       0       0       
      +0       0       0       0       0
  4559 ;;Total ram usage:        4 bytes
  4560 ;; Hardware stack levels used: 1
  4561 ;; Hardware stack levels required when called: 1
  4562 ;; This function calls:
  4563 ;;		_gpio_pin_direction_initialize
  4564 ;;		_gpio_pin_write_logic
  4565 ;; This function is called by:
  4566 ;;		_lcd_4bit_initialize
  4567 ;;		_dc_motor_initialize
  4568 ;;		_keypad_initialize
  4569 ;;		_led_initialize
  4570 ;;		_lcd_8bit_initialize
  4571 ;;		_relay_initialize
  4572 ;;		_initialize_seven_segment
  4573 ;; This function uses a non-reentrant model
  4574 ;;
  4575                           
  4576                           	psect	text29
  4577   002252                     __ptext29:
  4578                           	callstack 0
  4579   002252                     _gpio_pin_initialize:
  4580                           	callstack 26
  4581   002252                     
  4582                           ;MCAL_layer/GPIO/hal_gpio.c: 149:     if((pin==((void*)0))||(pin->pin>=8))
  4583   002252  503C               	movf	gpio_pin_initialize@pin^0,w,c
  4584   002254  103D               	iorwf	(gpio_pin_initialize@pin+1)^0,w,c
  4585   002256  B4D8               	btfsc	status,2,c
  4586   002258  EF30  F011         	goto	u1531
  4587   00225C  EF32  F011         	goto	u1530
  4588   002260                     u1531:
  4589   002260  EF43  F011         	goto	l2664
  4590   002264                     u1530:
  4591   002264  C03C  FFD9         	movff	gpio_pin_initialize@pin,fsr2l
  4592   002268  C03D  FFDA         	movff	gpio_pin_initialize@pin+1,fsr2h
  4593   00226C  30DF               	rrcf	223,w,c
  4594   00226E  32E8               	rrcf	wreg,f,c
  4595   002270  32E8               	rrcf	wreg,f,c
  4596   002272  0B07               	andlw	7
  4597   002274  6E3E               	movwf	??_gpio_pin_initialize^0,c
  4598   002276  0E07               	movlw	7
  4599   002278  643E               	cpfsgt	??_gpio_pin_initialize^0,c
  4600   00227A  EF41  F011         	goto	u1541
  4601   00227E  EF43  F011         	goto	u1540
  4602   002282                     u1541:
  4603   002282  EF47  F011         	goto	l2666
  4604   002286                     u1540:
  4605   002286                     l2664:
  4606                           
  4607                           ;MCAL_layer/GPIO/hal_gpio.c: 150:     {;MCAL_layer/GPIO/hal_gpio.c: 151:         ret = (
      +                          Std_ReturnType)0x00;
  4608   002286  0E00               	movlw	0
  4609   002288  6E3F               	movwf	gpio_pin_initialize@ret^0,c
  4610                           
  4611                           ;MCAL_layer/GPIO/hal_gpio.c: 152:     }
  4612   00228A  EF5D  F011         	goto	l2668
  4613   00228E                     l2666:
  4614                           
  4615                           ;MCAL_layer/GPIO/hal_gpio.c: 154:     {;MCAL_layer/GPIO/hal_gpio.c: 155:         ret = g
      +                          pio_pin_direction_initialize(pin);
  4616   00228E  C03C  F032         	movff	gpio_pin_initialize@pin,gpio_pin_direction_initialize@pin
  4617   002292  C03D  F033         	movff	gpio_pin_initialize@pin+1,gpio_pin_direction_initialize@pin+1
  4618   002296  ECC1  F00B         	call	_gpio_pin_direction_initialize	;wreg free
  4619   00229A  6E3F               	movwf	gpio_pin_initialize@ret^0,c
  4620                           
  4621                           ;MCAL_layer/GPIO/hal_gpio.c: 156:         ret = gpio_pin_write_logic(pin,pin->logic);
  4622   00229C  C03C  F032         	movff	gpio_pin_initialize@pin,gpio_pin_write_logic@pin
  4623   0022A0  C03D  F033         	movff	gpio_pin_initialize@pin+1,gpio_pin_write_logic@pin+1
  4624   0022A4  C03C  FFD9         	movff	gpio_pin_initialize@pin,fsr2l
  4625   0022A8  C03D  FFDA         	movff	gpio_pin_initialize@pin+1,fsr2h
  4626   0022AC  0E00               	movlw	0
  4627   0022AE  BEDF               	btfsc	indf2,7,c
  4628   0022B0  0E01               	movlw	1
  4629   0022B2  6E34               	movwf	gpio_pin_write_logic@log^0,c
  4630   0022B4  ECFC  F00C         	call	_gpio_pin_write_logic	;wreg free
  4631   0022B8  6E3F               	movwf	gpio_pin_initialize@ret^0,c
  4632   0022BA                     l2668:
  4633                           
  4634                           ;MCAL_layer/GPIO/hal_gpio.c: 158:     return ret;
  4635   0022BA  503F               	movf	gpio_pin_initialize@ret^0,w,c
  4636   0022BC  0012               	return		;funcret
  4637   0022BE                     __end_of_gpio_pin_initialize:
  4638                           	callstack 0
  4639                           
  4640 ;; *************** function _gpio_pin_write_logic *****************
  4641 ;; Defined at:
  4642 ;;		line 96 in file "MCAL_layer/GPIO/hal_gpio.c"
  4643 ;; Parameters:    Size  Location     Type
  4644 ;;  pin             2    0[COMRAM] PTR const struct .
  4645 ;;		 -> motor_1.dc_motor_pin(2), motor_1(2), lcd_1.lcd_data(4), lcd_1(6), 
  4646 ;;		 -> kp1.keypad_ROWS_pins(4), kp1(7), led_turn_off@pin_obj(1), led_turn_on@pin_obj(1), 
  4647 ;;		 -> led_initialize@pin_obj(1), relay_turn_off@relay_pin(1), relay_turn_on@relay_pin(1), relay_initialize@relay_pin(1
      +), 
  4648 ;;  log             1    2[COMRAM] enum E2986
  4649 ;; Auto vars:     Size  Location     Type
  4650 ;;  ret             1    9[COMRAM] unsigned char 
  4651 ;; Return value:  Size  Location     Type
  4652 ;;                  1    wreg      unsigned char 
  4653 ;; Registers used:
  4654 ;;		wreg, fsr2l, fsr2h, status,2, status,0, prodl, prodh
  4655 ;; Tracked objects:
  4656 ;;		On entry : 0/0
  4657 ;;		On exit  : 0/0
  4658 ;;		Unchanged: 0/0
  4659 ;; Data sizes:     COMRAM   BANK0   BANK1   BANK2   BANK3   BANK4   BANK5   BANK6   BANK7   BANK8   BANK9  BANK10  BANK1
      +1  BANK12  BANK13  BANK14  BANK15
  4660 ;;      Params:         3       0       0       0       0       0       0       0       0       0       0       0       
      +0       0       0       0       0
  4661 ;;      Locals:         1       0       0       0       0       0       0       0       0       0       0       0       
      +0       0       0       0       0
  4662 ;;      Temps:          6       0       0       0       0       0       0       0       0       0       0       0       
      +0       0       0       0       0
  4663 ;;      Totals:        10       0       0       0       0       0       0       0       0       0       0       0       
      +0       0       0       0       0
  4664 ;;Total ram usage:       10 bytes
  4665 ;; Hardware stack levels used: 1
  4666 ;; This function calls:
  4667 ;;		Nothing
  4668 ;; This function is called by:
  4669 ;;		_lcd_4bit_send_command
  4670 ;;		_lcd_4bit_send_char
  4671 ;;		_lcd_send_4bit
  4672 ;;		_lcd_4bit_send_enable
  4673 ;;		_dc_motor_move_right
  4674 ;;		_dc_motor_move_left
  4675 ;;		_dc_motor_stop
  4676 ;;		_keypad_get_value
  4677 ;;		_led_turn_on
  4678 ;;		_led_turn_off
  4679 ;;		_gpio_pin_initialize
  4680 ;;		_lcd_8bit_send_command
  4681 ;;		_lcd_8bit_send_char
  4682 ;;		_lcd_8bit_send_enable
  4683 ;;		_relay_turn_on
  4684 ;;		_relay_turn_off
  4685 ;;		_seven_segment_write_number
  4686 ;; This function uses a non-reentrant model
  4687 ;;
  4688                           
  4689                           	psect	text30
  4690   0019F8                     __ptext30:
  4691                           	callstack 0
  4692   0019F8                     _gpio_pin_write_logic:
  4693                           	callstack 25
  4694   0019F8                     
  4695                           ;MCAL_layer/GPIO/hal_gpio.c: 96: Std_ReturnType gpio_pin_write_logic(const pin_config *p
      +                          in,logic_t log);MCAL_layer/GPIO/hal_gpio.c: 97: {;MCAL_layer/GPIO/hal_gpio.c: 98:     St
      +                          d_ReturnType ret = (Std_ReturnType)0x01;
  4696   0019F8  0E01               	movlw	1
  4697   0019FA  6E3B               	movwf	gpio_pin_write_logic@ret^0,c
  4698   0019FC                     
  4699                           ;MCAL_layer/GPIO/hal_gpio.c: 99:     if((pin==((void*)0))||(pin->pin>=8))
  4700   0019FC  5032               	movf	gpio_pin_write_logic@pin^0,w,c
  4701   0019FE  1033               	iorwf	(gpio_pin_write_logic@pin+1)^0,w,c
  4702   001A00  B4D8               	btfsc	status,2,c
  4703   001A02  EF05  F00D         	goto	u1391
  4704   001A06  EF07  F00D         	goto	u1390
  4705   001A0A                     u1391:
  4706   001A0A  EF18  F00D         	goto	l2580
  4707   001A0E                     u1390:
  4708   001A0E  C032  FFD9         	movff	gpio_pin_write_logic@pin,fsr2l
  4709   001A12  C033  FFDA         	movff	gpio_pin_write_logic@pin+1,fsr2h
  4710   001A16  30DF               	rrcf	223,w,c
  4711   001A18  32E8               	rrcf	wreg,f,c
  4712   001A1A  32E8               	rrcf	wreg,f,c
  4713   001A1C  0B07               	andlw	7
  4714   001A1E  6E35               	movwf	??_gpio_pin_write_logic^0,c
  4715   001A20  0E07               	movlw	7
  4716   001A22  6435               	cpfsgt	??_gpio_pin_write_logic^0,c
  4717   001A24  EF16  F00D         	goto	u1401
  4718   001A28  EF18  F00D         	goto	u1400
  4719   001A2C                     u1401:
  4720   001A2C  EF7B  F00D         	goto	l2588
  4721   001A30                     u1400:
  4722   001A30                     l2580:
  4723                           
  4724                           ;MCAL_layer/GPIO/hal_gpio.c: 100:     {;MCAL_layer/GPIO/hal_gpio.c: 101:         ret = (
      +                          Std_ReturnType)0x00;
  4725   001A30  0E00               	movlw	0
  4726   001A32  6E3B               	movwf	gpio_pin_write_logic@ret^0,c
  4727                           
  4728                           ;MCAL_layer/GPIO/hal_gpio.c: 102:     }
  4729   001A34  EF90  F00D         	goto	l2590
  4730   001A38                     l2582:
  4731                           
  4732                           ;MCAL_layer/GPIO/hal_gpio.c: 108:                 (*lat_registers[pin->port] &= ~((uint8
      +                          )1 << pin->pin));
  4733   001A38  C032  FFD9         	movff	gpio_pin_write_logic@pin,fsr2l
  4734   001A3C  C033  FFDA         	movff	gpio_pin_write_logic@pin+1,fsr2h
  4735   001A40  30DF               	rrcf	223,w,c
  4736   001A42  32E8               	rrcf	wreg,f,c
  4737   001A44  32E8               	rrcf	wreg,f,c
  4738   001A46  0B07               	andlw	7
  4739   001A48  6E35               	movwf	??_gpio_pin_write_logic^0,c
  4740   001A4A  0E01               	movlw	1
  4741   001A4C  6E36               	movwf	(??_gpio_pin_write_logic+1)^0,c
  4742   001A4E  2A35               	incf	??_gpio_pin_write_logic^0,f,c
  4743   001A50  EF2C  F00D         	goto	u1414
  4744   001A54                     u1415:
  4745   001A54  90D8               	bcf	status,0,c
  4746   001A56  3636               	rlcf	(??_gpio_pin_write_logic+1)^0,f,c
  4747   001A58                     u1414:
  4748   001A58  2E35               	decfsz	??_gpio_pin_write_logic^0,f,c
  4749   001A5A  EF2A  F00D         	goto	u1415
  4750   001A5E  5036               	movf	(??_gpio_pin_write_logic+1)^0,w,c
  4751   001A60  0AFF               	xorlw	255
  4752   001A62  6E37               	movwf	(??_gpio_pin_write_logic+2)^0,c
  4753   001A64  C032  FFD9         	movff	gpio_pin_write_logic@pin,fsr2l
  4754   001A68  C033  FFDA         	movff	gpio_pin_write_logic@pin+1,fsr2h
  4755   001A6C  50DF               	movf	223,w,c
  4756   001A6E  0B07               	andlw	7
  4757   001A70  6E38               	movwf	(??_gpio_pin_write_logic+3)^0,c
  4758   001A72  5038               	movf	(??_gpio_pin_write_logic+3)^0,w,c
  4759   001A74  0D02               	mullw	2
  4760   001A76  0E01               	movlw	low _lat_registers
  4761   001A78  24F3               	addwf	243,w,c
  4762   001A7A  6ED9               	movwf	fsr2l,c
  4763   001A7C  0E00               	movlw	high _lat_registers
  4764   001A7E  20F4               	addwfc	prodh,w,c
  4765   001A80  6EDA               	movwf	fsr2h,c
  4766   001A82  CFDE F039          	movff	postinc2,??_gpio_pin_write_logic+4
  4767   001A86  CFDD F03A          	movff	postdec2,??_gpio_pin_write_logic+5
  4768   001A8A  C039  FFD9         	movff	??_gpio_pin_write_logic+4,fsr2l
  4769   001A8E  C03A  FFDA         	movff	??_gpio_pin_write_logic+5,fsr2h
  4770   001A92  5037               	movf	(??_gpio_pin_write_logic+2)^0,w,c
  4771   001A94  16DF               	andwf	indf2,f,c
  4772                           
  4773                           ;MCAL_layer/GPIO/hal_gpio.c: 109:                 break;
  4774   001A96  EF90  F00D         	goto	l2590
  4775   001A9A                     l2584:
  4776                           
  4777                           ;MCAL_layer/GPIO/hal_gpio.c: 111:                 (*lat_registers[pin->port] |= ((uint8)
      +                          1 << pin->pin));
  4778   001A9A  C032  FFD9         	movff	gpio_pin_write_logic@pin,fsr2l
  4779   001A9E  C033  FFDA         	movff	gpio_pin_write_logic@pin+1,fsr2h
  4780   001AA2  30DF               	rrcf	223,w,c
  4781   001AA4  32E8               	rrcf	wreg,f,c
  4782   001AA6  32E8               	rrcf	wreg,f,c
  4783   001AA8  0B07               	andlw	7
  4784   001AAA  6E35               	movwf	??_gpio_pin_write_logic^0,c
  4785   001AAC  0E01               	movlw	1
  4786   001AAE  6E36               	movwf	(??_gpio_pin_write_logic+1)^0,c
  4787   001AB0  2A35               	incf	??_gpio_pin_write_logic^0,f,c
  4788   001AB2  EF5D  F00D         	goto	u1424
  4789   001AB6                     u1425:
  4790   001AB6  90D8               	bcf	status,0,c
  4791   001AB8  3636               	rlcf	(??_gpio_pin_write_logic+1)^0,f,c
  4792   001ABA                     u1424:
  4793   001ABA  2E35               	decfsz	??_gpio_pin_write_logic^0,f,c
  4794   001ABC  EF5B  F00D         	goto	u1425
  4795   001AC0  C032  FFD9         	movff	gpio_pin_write_logic@pin,fsr2l
  4796   001AC4  C033  FFDA         	movff	gpio_pin_write_logic@pin+1,fsr2h
  4797   001AC8  50DF               	movf	223,w,c
  4798   001ACA  0B07               	andlw	7
  4799   001ACC  6E37               	movwf	(??_gpio_pin_write_logic+2)^0,c
  4800   001ACE  5037               	movf	(??_gpio_pin_write_logic+2)^0,w,c
  4801   001AD0  0D02               	mullw	2
  4802   001AD2  0E01               	movlw	low _lat_registers
  4803   001AD4  24F3               	addwf	243,w,c
  4804   001AD6  6ED9               	movwf	fsr2l,c
  4805   001AD8  0E00               	movlw	high _lat_registers
  4806   001ADA  20F4               	addwfc	prodh,w,c
  4807   001ADC  6EDA               	movwf	fsr2h,c
  4808   001ADE  CFDE F038          	movff	postinc2,??_gpio_pin_write_logic+3
  4809   001AE2  CFDD F039          	movff	postdec2,??_gpio_pin_write_logic+4
  4810   001AE6  C038  FFD9         	movff	??_gpio_pin_write_logic+3,fsr2l
  4811   001AEA  C039  FFDA         	movff	??_gpio_pin_write_logic+4,fsr2h
  4812   001AEE  5036               	movf	(??_gpio_pin_write_logic+1)^0,w,c
  4813   001AF0  12DF               	iorwf	indf2,f,c
  4814                           
  4815                           ;MCAL_layer/GPIO/hal_gpio.c: 112:                 break;
  4816   001AF2  EF90  F00D         	goto	l2590
  4817   001AF6                     l2588:
  4818   001AF6  5034               	movf	gpio_pin_write_logic@log^0,w,c
  4819   001AF8  6E35               	movwf	??_gpio_pin_write_logic^0,c
  4820   001AFA  6A36               	clrf	(??_gpio_pin_write_logic+1)^0,c
  4821                           
  4822                           ; Switch on 2 bytes has been partitioned into a top level switch of size 1, and 1 sub-sw
      +                          itches
  4823                           ; Switch size 1, requested type "simple"
  4824                           ; Number of cases is 1, Range of values is 0 to 0
  4825                           ; switch strategies available:
  4826                           ; Name         Instructions Cycles
  4827                           ; simple_byte            4     3 (average)
  4828                           ;	Chosen strategy is simple_byte
  4829   001AFC  5036               	movf	(??_gpio_pin_write_logic+1)^0,w,c
  4830   001AFE  0A00               	xorlw	0	; case 0
  4831   001B00  B4D8               	btfsc	status,2,c
  4832   001B02  EF85  F00D         	goto	l3712
  4833   001B06  EF18  F00D         	goto	l2580
  4834   001B0A                     l3712:
  4835                           
  4836                           ; Switch size 1, requested type "simple"
  4837                           ; Number of cases is 2, Range of values is 0 to 1
  4838                           ; switch strategies available:
  4839                           ; Name         Instructions Cycles
  4840                           ; simple_byte            7     4 (average)
  4841                           ;	Chosen strategy is simple_byte
  4842   001B0A  5035               	movf	??_gpio_pin_write_logic^0,w,c
  4843   001B0C  0A00               	xorlw	0	; case 0
  4844   001B0E  B4D8               	btfsc	status,2,c
  4845   001B10  EF1C  F00D         	goto	l2582
  4846   001B14  0A01               	xorlw	1	; case 1
  4847   001B16  B4D8               	btfsc	status,2,c
  4848   001B18  EF4D  F00D         	goto	l2584
  4849   001B1C  EF18  F00D         	goto	l2580
  4850   001B20                     l2590:
  4851                           
  4852                           ;MCAL_layer/GPIO/hal_gpio.c: 117:      return ret;
  4853   001B20  503B               	movf	gpio_pin_write_logic@ret^0,w,c
  4854   001B22  0012               	return		;funcret
  4855   001B24                     __end_of_gpio_pin_write_logic:
  4856                           	callstack 0
  4857                           
  4858 ;; *************** function _gpio_pin_direction_initialize *****************
  4859 ;; Defined at:
  4860 ;;		line 22 in file "MCAL_layer/GPIO/hal_gpio.c"
  4861 ;; Parameters:    Size  Location     Type
  4862 ;;  pin             2    0[COMRAM] PTR const struct .
  4863 ;;		 -> motor_1.dc_motor_pin(2), motor_1(2), lcd_1.lcd_data(4), lcd_1(6), 
  4864 ;;		 -> kp1.keypad_coulmns_pins(3), kp1.keypad_ROWS_pins(4), kp1(7), led_initialize@pin_obj(1), 
  4865 ;;		 -> relay_initialize@relay_pin(1), 
  4866 ;; Auto vars:     Size  Location     Type
  4867 ;;  ret             1    8[COMRAM] unsigned char 
  4868 ;; Return value:  Size  Location     Type
  4869 ;;                  1    wreg      unsigned char 
  4870 ;; Registers used:
  4871 ;;		wreg, fsr2l, fsr2h, status,2, status,0, prodl, prodh
  4872 ;; Tracked objects:
  4873 ;;		On entry : 0/0
  4874 ;;		On exit  : 0/0
  4875 ;;		Unchanged: 0/0
  4876 ;; Data sizes:     COMRAM   BANK0   BANK1   BANK2   BANK3   BANK4   BANK5   BANK6   BANK7   BANK8   BANK9  BANK10  BANK1
      +1  BANK12  BANK13  BANK14  BANK15
  4877 ;;      Params:         2       0       0       0       0       0       0       0       0       0       0       0       
      +0       0       0       0       0
  4878 ;;      Locals:         1       0       0       0       0       0       0       0       0       0       0       0       
      +0       0       0       0       0
  4879 ;;      Temps:          6       0       0       0       0       0       0       0       0       0       0       0       
      +0       0       0       0       0
  4880 ;;      Totals:         9       0       0       0       0       0       0       0       0       0       0       0       
      +0       0       0       0       0
  4881 ;;Total ram usage:        9 bytes
  4882 ;; Hardware stack levels used: 1
  4883 ;; This function calls:
  4884 ;;		Nothing
  4885 ;; This function is called by:
  4886 ;;		_keypad_initialize
  4887 ;;		_gpio_pin_initialize
  4888 ;;		_push_button_initialize
  4889 ;; This function uses a non-reentrant model
  4890 ;;
  4891                           
  4892                           	psect	text31
  4893   001782                     __ptext31:
  4894                           	callstack 0
  4895   001782                     _gpio_pin_direction_initialize:
  4896                           	callstack 26
  4897   001782                     
  4898                           ;MCAL_layer/GPIO/hal_gpio.c: 22: Std_ReturnType gpio_pin_direction_initialize(const pin_
      +                          config *pin);MCAL_layer/GPIO/hal_gpio.c: 23: {;MCAL_layer/GPIO/hal_gpio.c: 24:     Std_R
      +                          eturnType ret = (Std_ReturnType)0x01;
  4899   001782  0E01               	movlw	1
  4900   001784  6E3A               	movwf	gpio_pin_direction_initialize@ret^0,c
  4901   001786                     
  4902                           ;MCAL_layer/GPIO/hal_gpio.c: 25:     if((pin==((void*)0))||(pin->pin>=8))
  4903   001786  5032               	movf	gpio_pin_direction_initialize@pin^0,w,c
  4904   001788  1033               	iorwf	(gpio_pin_direction_initialize@pin+1)^0,w,c
  4905   00178A  B4D8               	btfsc	status,2,c
  4906   00178C  EFCA  F00B         	goto	u1471
  4907   001790  EFCC  F00B         	goto	u1470
  4908   001794                     u1471:
  4909   001794  EFDD  F00B         	goto	l2640
  4910   001798                     u1470:
  4911   001798  C032  FFD9         	movff	gpio_pin_direction_initialize@pin,fsr2l
  4912   00179C  C033  FFDA         	movff	gpio_pin_direction_initialize@pin+1,fsr2h
  4913   0017A0  30DF               	rrcf	223,w,c
  4914   0017A2  32E8               	rrcf	wreg,f,c
  4915   0017A4  32E8               	rrcf	wreg,f,c
  4916   0017A6  0B07               	andlw	7
  4917   0017A8  6E34               	movwf	??_gpio_pin_direction_initialize^0,c
  4918   0017AA  0E07               	movlw	7
  4919   0017AC  6434               	cpfsgt	??_gpio_pin_direction_initialize^0,c
  4920   0017AE  EFDB  F00B         	goto	u1481
  4921   0017B2  EFDD  F00B         	goto	u1480
  4922   0017B6                     u1481:
  4923   0017B6  EF40  F00C         	goto	l2648
  4924   0017BA                     u1480:
  4925   0017BA                     l2640:
  4926                           
  4927                           ;MCAL_layer/GPIO/hal_gpio.c: 26:     {;MCAL_layer/GPIO/hal_gpio.c: 27:         ret = (St
      +                          d_ReturnType)0x00;
  4928   0017BA  0E00               	movlw	0
  4929   0017BC  6E3A               	movwf	gpio_pin_direction_initialize@ret^0,c
  4930                           
  4931                           ;MCAL_layer/GPIO/hal_gpio.c: 28:     }
  4932   0017BE  EF61  F00C         	goto	l2650
  4933   0017C2                     l2642:
  4934                           
  4935                           ;MCAL_layer/GPIO/hal_gpio.c: 34:                 (*tris_registers[pin->port] &= ~((uint8
      +                          )1 << pin->pin));
  4936   0017C2  C032  FFD9         	movff	gpio_pin_direction_initialize@pin,fsr2l
  4937   0017C6  C033  FFDA         	movff	gpio_pin_direction_initialize@pin+1,fsr2h
  4938   0017CA  30DF               	rrcf	223,w,c
  4939   0017CC  32E8               	rrcf	wreg,f,c
  4940   0017CE  32E8               	rrcf	wreg,f,c
  4941   0017D0  0B07               	andlw	7
  4942   0017D2  6E34               	movwf	??_gpio_pin_direction_initialize^0,c
  4943   0017D4  0E01               	movlw	1
  4944   0017D6  6E35               	movwf	(??_gpio_pin_direction_initialize+1)^0,c
  4945   0017D8  2A34               	incf	??_gpio_pin_direction_initialize^0,f,c
  4946   0017DA  EFF1  F00B         	goto	u1494
  4947   0017DE                     u1495:
  4948   0017DE  90D8               	bcf	status,0,c
  4949   0017E0  3635               	rlcf	(??_gpio_pin_direction_initialize+1)^0,f,c
  4950   0017E2                     u1494:
  4951   0017E2  2E34               	decfsz	??_gpio_pin_direction_initialize^0,f,c
  4952   0017E4  EFEF  F00B         	goto	u1495
  4953   0017E8  5035               	movf	(??_gpio_pin_direction_initialize+1)^0,w,c
  4954   0017EA  0AFF               	xorlw	255
  4955   0017EC  6E36               	movwf	(??_gpio_pin_direction_initialize+2)^0,c
  4956   0017EE  C032  FFD9         	movff	gpio_pin_direction_initialize@pin,fsr2l
  4957   0017F2  C033  FFDA         	movff	gpio_pin_direction_initialize@pin+1,fsr2h
  4958   0017F6  50DF               	movf	223,w,c
  4959   0017F8  0B07               	andlw	7
  4960   0017FA  6E37               	movwf	(??_gpio_pin_direction_initialize+3)^0,c
  4961   0017FC  5037               	movf	(??_gpio_pin_direction_initialize+3)^0,w,c
  4962   0017FE  0D02               	mullw	2
  4963   001800  0E15               	movlw	low _tris_registers
  4964   001802  24F3               	addwf	243,w,c
  4965   001804  6ED9               	movwf	fsr2l,c
  4966   001806  0E00               	movlw	high _tris_registers
  4967   001808  20F4               	addwfc	prodh,w,c
  4968   00180A  6EDA               	movwf	fsr2h,c
  4969   00180C  CFDE F038          	movff	postinc2,??_gpio_pin_direction_initialize+4
  4970   001810  CFDD F039          	movff	postdec2,??_gpio_pin_direction_initialize+5
  4971   001814  C038  FFD9         	movff	??_gpio_pin_direction_initialize+4,fsr2l
  4972   001818  C039  FFDA         	movff	??_gpio_pin_direction_initialize+5,fsr2h
  4973   00181C  5036               	movf	(??_gpio_pin_direction_initialize+2)^0,w,c
  4974   00181E  16DF               	andwf	indf2,f,c
  4975                           
  4976                           ;MCAL_layer/GPIO/hal_gpio.c: 35:                 break;
  4977   001820  EF61  F00C         	goto	l2650
  4978   001824                     l2644:
  4979                           
  4980                           ;MCAL_layer/GPIO/hal_gpio.c: 37:                 (*tris_registers[pin->port] |= ((uint8)
      +                          1 << pin->pin));
  4981   001824  C032  FFD9         	movff	gpio_pin_direction_initialize@pin,fsr2l
  4982   001828  C033  FFDA         	movff	gpio_pin_direction_initialize@pin+1,fsr2h
  4983   00182C  30DF               	rrcf	223,w,c
  4984   00182E  32E8               	rrcf	wreg,f,c
  4985   001830  32E8               	rrcf	wreg,f,c
  4986   001832  0B07               	andlw	7
  4987   001834  6E34               	movwf	??_gpio_pin_direction_initialize^0,c
  4988   001836  0E01               	movlw	1
  4989   001838  6E35               	movwf	(??_gpio_pin_direction_initialize+1)^0,c
  4990   00183A  2A34               	incf	??_gpio_pin_direction_initialize^0,f,c
  4991   00183C  EF22  F00C         	goto	u1504
  4992   001840                     u1505:
  4993   001840  90D8               	bcf	status,0,c
  4994   001842  3635               	rlcf	(??_gpio_pin_direction_initialize+1)^0,f,c
  4995   001844                     u1504:
  4996   001844  2E34               	decfsz	??_gpio_pin_direction_initialize^0,f,c
  4997   001846  EF20  F00C         	goto	u1505
  4998   00184A  C032  FFD9         	movff	gpio_pin_direction_initialize@pin,fsr2l
  4999   00184E  C033  FFDA         	movff	gpio_pin_direction_initialize@pin+1,fsr2h
  5000   001852  50DF               	movf	223,w,c
  5001   001854  0B07               	andlw	7
  5002   001856  6E36               	movwf	(??_gpio_pin_direction_initialize+2)^0,c
  5003   001858  5036               	movf	(??_gpio_pin_direction_initialize+2)^0,w,c
  5004   00185A  0D02               	mullw	2
  5005   00185C  0E15               	movlw	low _tris_registers
  5006   00185E  24F3               	addwf	243,w,c
  5007   001860  6ED9               	movwf	fsr2l,c
  5008   001862  0E00               	movlw	high _tris_registers
  5009   001864  20F4               	addwfc	prodh,w,c
  5010   001866  6EDA               	movwf	fsr2h,c
  5011   001868  CFDE F037          	movff	postinc2,??_gpio_pin_direction_initialize+3
  5012   00186C  CFDD F038          	movff	postdec2,??_gpio_pin_direction_initialize+4
  5013   001870  C037  FFD9         	movff	??_gpio_pin_direction_initialize+3,fsr2l
  5014   001874  C038  FFDA         	movff	??_gpio_pin_direction_initialize+4,fsr2h
  5015   001878  5035               	movf	(??_gpio_pin_direction_initialize+1)^0,w,c
  5016   00187A  12DF               	iorwf	indf2,f,c
  5017                           
  5018                           ;MCAL_layer/GPIO/hal_gpio.c: 38:                 break;
  5019   00187C  EF61  F00C         	goto	l2650
  5020   001880                     l2648:
  5021   001880  C032  FFD9         	movff	gpio_pin_direction_initialize@pin,fsr2l
  5022   001884  C033  FFDA         	movff	gpio_pin_direction_initialize@pin+1,fsr2h
  5023   001888  BCDF               	btfsc	indf2,6,c
  5024   00188A  EF49  F00C         	goto	u1511
  5025   00188E  EF4C  F00C         	goto	u1510
  5026   001892                     u1511:
  5027   001892  0E01               	movlw	1
  5028   001894  EF4D  F00C         	goto	u1520
  5029   001898                     u1510:
  5030   001898  0E00               	movlw	0
  5031   00189A                     u1520:
  5032   00189A  6E34               	movwf	??_gpio_pin_direction_initialize^0,c
  5033   00189C  6A35               	clrf	(??_gpio_pin_direction_initialize+1)^0,c
  5034                           
  5035                           ; Switch on 2 bytes has been partitioned into a top level switch of size 1, and 1 sub-sw
      +                          itches
  5036                           ; Switch size 1, requested type "simple"
  5037                           ; Number of cases is 1, Range of values is 0 to 0
  5038                           ; switch strategies available:
  5039                           ; Name         Instructions Cycles
  5040                           ; simple_byte            4     3 (average)
  5041                           ;	Chosen strategy is simple_byte
  5042   00189E  5035               	movf	(??_gpio_pin_direction_initialize+1)^0,w,c
  5043   0018A0  0A00               	xorlw	0	; case 0
  5044   0018A2  B4D8               	btfsc	status,2,c
  5045   0018A4  EF56  F00C         	goto	l3714
  5046   0018A8  EFDD  F00B         	goto	l2640
  5047   0018AC                     l3714:
  5048                           
  5049                           ; Switch size 1, requested type "simple"
  5050                           ; Number of cases is 2, Range of values is 0 to 1
  5051                           ; switch strategies available:
  5052                           ; Name         Instructions Cycles
  5053                           ; simple_byte            7     4 (average)
  5054                           ;	Chosen strategy is simple_byte
  5055   0018AC  5034               	movf	??_gpio_pin_direction_initialize^0,w,c
  5056   0018AE  0A00               	xorlw	0	; case 0
  5057   0018B0  B4D8               	btfsc	status,2,c
  5058   0018B2  EFE1  F00B         	goto	l2642
  5059   0018B6  0A01               	xorlw	1	; case 1
  5060   0018B8  B4D8               	btfsc	status,2,c
  5061   0018BA  EF12  F00C         	goto	l2644
  5062   0018BE  EFDD  F00B         	goto	l2640
  5063   0018C2                     l2650:
  5064                           
  5065                           ;MCAL_layer/GPIO/hal_gpio.c: 43:     return ret;
  5066   0018C2  503A               	movf	gpio_pin_direction_initialize@ret^0,w,c
  5067   0018C4  0012               	return		;funcret
  5068   0018C6                     __end_of_gpio_pin_direction_initialize:
  5069                           	callstack 0
  5070                           
  5071                           	psect	rparam
  5072   000000                     
  5073                           	psect	config
  5074                           
  5075                           ; Padding undefined space
  5076   300000                     	org	3145728
  5077   300000  FF                 	db	255
  5078                           
  5079                           ;Config register CONFIG1H @ 0x300001
  5080                           ;	Oscillator Selection bits
  5081                           ;	OSC = HS, HS oscillator
  5082                           ;	Fail-Safe Clock Monitor Enable bit
  5083                           ;	FCMEN = OFF, Fail-Safe Clock Monitor disabled
  5084                           ;	Internal/External Oscillator Switchover bit
  5085                           ;	IESO = OFF, Oscillator Switchover mode disabled
  5086   300001                     	org	3145729
  5087   300001  02                 	db	2
  5088                           
  5089                           ;Config register CONFIG2L @ 0x300002
  5090                           ;	Power-up Timer Enable bit
  5091                           ;	PWRT = OFF, PWRT disabled
  5092                           ;	Brown-out Reset Enable bits
  5093                           ;	BOREN = OFF, Brown-out Reset disabled in hardware and software
  5094                           ;	Brown Out Reset Voltage bits
  5095                           ;	BORV = 1, 
  5096   300002                     	org	3145730
  5097   300002  09                 	db	9
  5098                           
  5099                           ;Config register CONFIG2H @ 0x300003
  5100                           ;	Watchdog Timer Enable bit
  5101                           ;	WDT = OFF, WDT disabled (control is placed on the SWDTEN bit)
  5102                           ;	Watchdog Timer Postscale Select bits
  5103                           ;	WDTPS = 32768, 1:32768
  5104   300003                     	org	3145731
  5105   300003  1E                 	db	30
  5106                           
  5107                           ; Padding undefined space
  5108   300004                     	org	3145732
  5109   300004  FF                 	db	255
  5110                           
  5111                           ;Config register CONFIG3H @ 0x300005
  5112                           ;	CCP2 MUX bit
  5113                           ;	CCP2MX = PORTC, CCP2 input/output is multiplexed with RC1
  5114                           ;	PORTB A/D Enable bit
  5115                           ;	PBADEN = OFF, PORTB<4:0> pins are configured as digital I/O on Reset
  5116                           ;	Low-Power Timer1 Oscillator Enable bit
  5117                           ;	LPT1OSC = OFF, Timer1 configured for higher power operation
  5118                           ;	MCLR Pin Enable bit
  5119                           ;	MCLRE = ON, MCLR pin enabled; RE3 input pin disabled
  5120   300005                     	org	3145733
  5121   300005  81                 	db	129
  5122                           
  5123                           ;Config register CONFIG4L @ 0x300006
  5124                           ;	Stack Full/Underflow Reset Enable bit
  5125                           ;	STVREN = ON, Stack full/underflow will cause Reset
  5126                           ;	Single-Supply ICSP Enable bit
  5127                           ;	LVP = OFF, Single-Supply ICSP disabled
  5128                           ;	Extended Instruction Set Enable bit
  5129                           ;	XINST = OFF, Instruction set extension and Indexed Addressing mode disabled (Legacy mo
      +                          de)
  5130                           ;	Background Debugger Enable bit
  5131                           ;	DEBUG = 0x1, unprogrammed default
  5132   300006                     	org	3145734
  5133   300006  81                 	db	129
  5134                           
  5135                           ; Padding undefined space
  5136   300007                     	org	3145735
  5137   300007  FF                 	db	255
  5138                           
  5139                           ;Config register CONFIG5L @ 0x300008
  5140                           ;	Code Protection bit
  5141                           ;	CP0 = OFF, Block 0 (000800-003FFFh) not code-protected
  5142                           ;	Code Protection bit
  5143                           ;	CP1 = OFF, Block 1 (004000-007FFFh) not code-protected
  5144                           ;	Code Protection bit
  5145                           ;	CP2 = OFF, Block 2 (008000-00BFFFh) not code-protected
  5146                           ;	Code Protection bit
  5147                           ;	CP3 = OFF, Block 3 (00C000-00FFFFh) not code-protected
  5148   300008                     	org	3145736
  5149   300008  0F                 	db	15
  5150                           
  5151                           ;Config register CONFIG5H @ 0x300009
  5152                           ;	Boot Block Code Protection bit
  5153                           ;	CPB = OFF, Boot block (000000-0007FFh) not code-protected
  5154                           ;	Data EEPROM Code Protection bit
  5155                           ;	CPD = OFF, Data EEPROM not code-protected
  5156   300009                     	org	3145737
  5157   300009  C0                 	db	192
  5158                           
  5159                           ;Config register CONFIG6L @ 0x30000A
  5160                           ;	Write Protection bit
  5161                           ;	WRT0 = OFF, Block 0 (000800-003FFFh) not write-protected
  5162                           ;	Write Protection bit
  5163                           ;	WRT1 = OFF, Block 1 (004000-007FFFh) not write-protected
  5164                           ;	Write Protection bit
  5165                           ;	WRT2 = OFF, Block 2 (008000-00BFFFh) not write-protected
  5166                           ;	Write Protection bit
  5167                           ;	WRT3 = OFF, Block 3 (00C000-00FFFFh) not write-protected
  5168   30000A                     	org	3145738
  5169   30000A  0F                 	db	15
  5170                           
  5171                           ;Config register CONFIG6H @ 0x30000B
  5172                           ;	Configuration Register Write Protection bit
  5173                           ;	WRTC = OFF, Configuration registers (300000-3000FFh) not write-protected
  5174                           ;	Boot Block Write Protection bit
  5175                           ;	WRTB = OFF, Boot Block (000000-0007FFh) not write-protected
  5176                           ;	Data EEPROM Write Protection bit
  5177                           ;	WRTD = OFF, Data EEPROM not write-protected
  5178   30000B                     	org	3145739
  5179   30000B  E0                 	db	224
  5180                           
  5181                           ;Config register CONFIG7L @ 0x30000C
  5182                           ;	Table Read Protection bit
  5183                           ;	EBTR0 = OFF, Block 0 (000800-003FFFh) not protected from table reads executed in other
      +                           blocks
  5184                           ;	Table Read Protection bit
  5185                           ;	EBTR1 = OFF, Block 1 (004000-007FFFh) not protected from table reads executed in other
      +                           blocks
  5186                           ;	Table Read Protection bit
  5187                           ;	EBTR2 = OFF, Block 2 (008000-00BFFFh) not protected from table reads executed in other
      +                           blocks
  5188                           ;	Table Read Protection bit
  5189                           ;	EBTR3 = OFF, Block 3 (00C000-00FFFFh) not protected from table reads executed in other
      +                           blocks
  5190   30000C                     	org	3145740
  5191   30000C  0F                 	db	15
  5192                           
  5193                           ;Config register CONFIG7H @ 0x30000D
  5194                           ;	Boot Block Table Read Protection bit
  5195                           ;	EBTRB = OFF, Boot Block (000000-0007FFh) not protected from table reads executed in ot
      +                          her blocks
  5196   30000D                     	org	3145741
  5197   30000D  40                 	db	64
  5198                           tosu	equ	0xFFF
  5199                           tosh	equ	0xFFE
  5200                           tosl	equ	0xFFD
  5201                           stkptr	equ	0xFFC
  5202                           pclatu	equ	0xFFB
  5203                           pclath	equ	0xFFA
  5204                           pcl	equ	0xFF9
  5205                           tblptru	equ	0xFF8
  5206                           tblptrh	equ	0xFF7
  5207                           tblptrl	equ	0xFF6
  5208                           tablat	equ	0xFF5
  5209                           prodh	equ	0xFF4
  5210                           prodl	equ	0xFF3
  5211                           indf0	equ	0xFEF
  5212                           postinc0	equ	0xFEE
  5213                           postdec0	equ	0xFED
  5214                           preinc0	equ	0xFEC
  5215                           plusw0	equ	0xFEB
  5216                           fsr0h	equ	0xFEA
  5217                           fsr0l	equ	0xFE9
  5218                           wreg	equ	0xFE8
  5219                           indf1	equ	0xFE7
  5220                           postinc1	equ	0xFE6
  5221                           postdec1	equ	0xFE5
  5222                           preinc1	equ	0xFE4
  5223                           plusw1	equ	0xFE3
  5224                           fsr1h	equ	0xFE2
  5225                           fsr1l	equ	0xFE1
  5226                           bsr	equ	0xFE0
  5227                           indf2	equ	0xFDF
  5228                           postinc2	equ	0xFDE
  5229                           postdec2	equ	0xFDD
  5230                           preinc2	equ	0xFDC
  5231                           plusw2	equ	0xFDB
  5232                           fsr2h	equ	0xFDA
  5233                           fsr2l	equ	0xFD9
  5234                           status	equ	0xFD8

Data Sizes:
    Strings     107
    Constant    12
    Data        49
    BSS         25
    Persistent  1
    Stack       0

Auto Spaces:
    Space          Size  Autos    Used
    COMRAM          127     44     119
    BANK0           128      0       0
    BANK1           256      0       0
    BANK2           256      0       0
    BANK3           256      0       0
    BANK4           256      0       0
    BANK5           256      0       0
    BANK6           256      0       0
    BANK7           256      0       0
    BANK8           256      0       0
    BANK9           256      0       0
    BANK10          256      0       0
    BANK11          256      0       0
    BANK12          256      0       0
    BANK13          256      0       0
    BANK14          256      0       0
    BANK15          128      0       0

Pointer List with Targets:

    vfprintf$2	PTR PTR void  size(2) Largest target is 2
		 -> sprintf@ap(COMRAM[2]), 

    vfprintf$1	PTR const unsigned char  size(2) Largest target is 3
		 -> STR_3(CODE[3]), STR_2(CODE[3]), STR_1(CODE[3]), 

    vfprintf$0	PTR struct _IO_FILE size(2) Largest target is 12
		 -> sprintf@f(COMRAM[12]), 

    strlen@s	PTR const unsigned char  size(2) Largest target is 11
		 -> entered_password_arr(COMRAM[11]), 

    strlen@a	PTR const unsigned char  size(2) Largest target is 11
		 -> entered_password_arr(COMRAM[11]), 

    S1394$source	PTR const unsigned char  size(2) Largest target is 0

    f...source	PTR const unsigned char  size(2) Largest target is 0

    S1394$buffer	PTR unsigned char  size(2) Largest target is 0

    f...buffer	PTR unsigned char  size(2) Largest target is 0

    memset@dest	PTR void  size(2) Largest target is 11
		 -> entered_password_arr(COMRAM[11]), 

    memset@s	PTR unsigned char  size(2) Largest target is 11
		 -> entered_password_arr(COMRAM[11]), 

    atoi@s	PTR const unsigned char  size(2) Largest target is 11
		 -> entered_password_arr(COMRAM[11]), 

    gpio_pin_initialize@pin	PTR const struct . size(2) Largest target is 7
		 -> motor_1.dc_motor_pin(COMRAM[2]), motor_1(COMRAM[2]), lcd_1.lcd_data(COMRAM[4]), lcd_1(COMRAM[6]), 
		 -> kp1.keypad_ROWS_pins(COMRAM[4]), kp1(COMRAM[7]), led_initialize@pin_obj(COMRAM[1]), relay_initialize@relay_pin(COMRAM[1]), 

    gpio_pin_write_logic@pin	PTR const struct . size(2) Largest target is 7
		 -> motor_1.dc_motor_pin(COMRAM[2]), motor_1(COMRAM[2]), lcd_1.lcd_data(COMRAM[4]), lcd_1(COMRAM[6]), 
		 -> kp1.keypad_ROWS_pins(COMRAM[4]), kp1(COMRAM[7]), led_turn_off@pin_obj(COMRAM[1]), led_turn_on@pin_obj(COMRAM[1]), 
		 -> led_initialize@pin_obj(COMRAM[1]), relay_turn_off@relay_pin(COMRAM[1]), relay_turn_on@relay_pin(COMRAM[1]), relay_initialize@relay_pin(COMRAM[1]), 

    gpio_pin_read_logic@log	PTR enum E2986 size(2) Largest target is 1
		 -> push_button_read@btn_l(COMRAM[1]), keypad_get_value@log(COMRAM[1]), 

    gpio_pin_read_logic@pin	PTR const struct . size(2) Largest target is 7
		 -> kp1.keypad_coulmns_pins(COMRAM[3]), kp1(COMRAM[7]), 

    gpio_pin_direction_initialize@pin	PTR const struct . size(2) Largest target is 7
		 -> motor_1.dc_motor_pin(COMRAM[2]), motor_1(COMRAM[2]), lcd_1.lcd_data(COMRAM[4]), lcd_1(COMRAM[6]), 
		 -> kp1.keypad_coulmns_pins(COMRAM[3]), kp1.keypad_ROWS_pins(COMRAM[4]), kp1(COMRAM[7]), led_initialize@pin_obj(COMRAM[1]), 
		 -> relay_initialize@relay_pin(COMRAM[1]), 

    lat_registers	PTR volatile unsigned char [5] size(2) Largest target is 1
		 -> LATE(BITBIGSFRlh[1]), LATD(BITBIGSFRlh[1]), LATC(BITBIGSFRlh[1]), LATB(BITBIGSFRlh[1]), 
		 -> LATA(BITBIGSFRll[1]), 

    port_registers	PTR volatile unsigned char [5] size(2) Largest target is 1
		 -> PORTE(BITBIGSFRll[1]), PORTD(BITBIGSFRll[1]), PORTC(BITBIGSFRll[1]), PORTB(BITBIGSFRll[1]), 
		 -> PORTA(BITBIGSFRll[1]), 

    tris_registers	PTR volatile unsigned char [5] size(2) Largest target is 1
		 -> TRISE(BITBIGSFRh[1]), TRISD(BITBIGSFRh[1]), TRISC(BITBIGSFRh[1]), TRISB(BITBIGSFRh[1]), 
		 -> TRISA(BITBIGSFRll[1]), 

    led_turn_off@led	PTR const struct . size(2) Largest target is 1
		 -> led_2(COMRAM[1]), led_1(COMRAM[1]), 

    led_turn_on@led	PTR const struct . size(2) Largest target is 1
		 -> led_2(COMRAM[1]), led_1(COMRAM[1]), 

    led_initialize@led	PTR const struct . size(2) Largest target is 1
		 -> led_2(COMRAM[1]), led_1(COMRAM[1]), 

    keypad_get_value@value	PTR unsigned char  size(2) Largest target is 1
		 -> value(COMRAM[1]), 

    keypad_get_value@keypad	PTR const struct . size(2) Largest target is 7
		 -> kp1(COMRAM[7]), 

    keypad_initialize@keypad	PTR const struct . size(2) Largest target is 7
		 -> kp1(COMRAM[7]), 

    dc_motor_stop@dc_motor	PTR const struct . size(2) Largest target is 2
		 -> motor_1(COMRAM[2]), 

    dc_motor_move_left@dc_motor	PTR const struct . size(2) Largest target is 2
		 -> motor_1(COMRAM[2]), 

    dc_motor_move_right@dc_motor	PTR const struct . size(2) Largest target is 2
		 -> motor_1(COMRAM[2]), 

    dc_motor_initialize@dc_motor	PTR const struct . size(2) Largest target is 2
		 -> motor_1(COMRAM[2]), 

    lcd_4bit_set_cursor@lcd_obj	PTR const struct . size(2) Largest target is 6
		 -> lcd_1(COMRAM[6]), 

    lcd_4bit_send_enable@lcd_obj	PTR const struct . size(2) Largest target is 6
		 -> lcd_1(COMRAM[6]), 

    lcd_send_4bit@lcd_obj	PTR const struct . size(2) Largest target is 6
		 -> lcd_1(COMRAM[6]), 

    sp__memset	PTR void  size(2) Largest target is 11
		 -> entered_password_arr(COMRAM[11]), 

    lcd_4bit_send_string_pos@string	PTR unsigned char  size(2) Largest target is 17
		 -> STR_14(CODE[12]), STR_13(CODE[17]), STR_12(CODE[17]), STR_11(CODE[10]), 
		 -> STR_10(CODE[17]), STR_9(CODE[17]), STR_8(CODE[7]), STR_7(CODE[17]), 
		 -> STR_6(CODE[16]), STR_5(CODE[8]), STR_4(CODE[17]), 

    lcd_4bit_send_string_pos@lcd_obj	PTR const struct . size(2) Largest target is 6
		 -> lcd_1(COMRAM[6]), 

    lcd_4bit_send_string@string	PTR unsigned char  size(2) Largest target is 17
		 -> STR_14(CODE[12]), STR_13(CODE[17]), STR_12(CODE[17]), STR_11(CODE[10]), 
		 -> STR_10(CODE[17]), STR_9(CODE[17]), STR_8(CODE[7]), STR_7(CODE[17]), 
		 -> STR_6(CODE[16]), STR_5(CODE[8]), STR_4(CODE[17]), 

    lcd_4bit_send_string@lcd_obj	PTR const struct . size(2) Largest target is 6
		 -> lcd_1(COMRAM[6]), 

    lcd_4bit_send_char_pos@lcd_obj	PTR const struct . size(2) Largest target is 6
		 -> lcd_1(COMRAM[6]), 

    lcd_4bit_send_char@lcd_obj	PTR const struct . size(2) Largest target is 6
		 -> lcd_1(COMRAM[6]), 

    lcd_4bit_send_command@lcd_obj	PTR const struct . size(2) Largest target is 6
		 -> lcd_1(COMRAM[6]), 

    lcd_4bit_initialize@lcd_obj	PTR const struct . size(2) Largest target is 6
		 -> lcd_1(COMRAM[6]), 


Critical Paths under _main in COMRAM

    _main->_loading
    _loading->_lcd_4bit_send_string_pos
    _lcd_4bit_send_string_pos->_lcd_4bit_set_cursor
    _lcd_4bit_send_string->_lcd_4bit_send_char
    _lcd_4bit_send_char_pos->_lcd_4bit_set_cursor
    _lcd_4bit_set_cursor->_lcd_4bit_send_command
    _lcd_4bit_send_char->_lcd_send_4bit
    _led_turn_on->_gpio_pin_write_logic
    _led_turn_off->_gpio_pin_write_logic
    _keypad_get_value->_gpio_pin_read_logic
    _keypad_get_value->_gpio_pin_write_logic
    _dc_motor_stop->_gpio_pin_write_logic
    _dc_motor_move_right->_gpio_pin_write_logic
    _dc_motor_move_left->_gpio_pin_write_logic
    _atoi->___wmul
    _ecu_initialize->_lcd_4bit_initialize
    _led_initialize->_gpio_pin_initialize
    _lcd_4bit_initialize->_lcd_4bit_send_command
    _lcd_4bit_send_command->_lcd_send_4bit
    _lcd_send_4bit->_gpio_pin_write_logic
    _lcd_4bit_send_enable->_gpio_pin_write_logic
    _keypad_initialize->_gpio_pin_initialize
    _dc_motor_initialize->_gpio_pin_initialize
    _gpio_pin_initialize->_gpio_pin_write_logic

Critical Paths under _main in BANK0

    None.

Critical Paths under _main in BANK1

    None.

Critical Paths under _main in BANK2

    None.

Critical Paths under _main in BANK3

    None.

Critical Paths under _main in BANK4

    None.

Critical Paths under _main in BANK5

    None.

Critical Paths under _main in BANK6

    None.

Critical Paths under _main in BANK7

    None.

Critical Paths under _main in BANK8

    None.

Critical Paths under _main in BANK9

    None.

Critical Paths under _main in BANK10

    None.

Critical Paths under _main in BANK11

    None.

Critical Paths under _main in BANK12

    None.

Critical Paths under _main in BANK13

    None.

Critical Paths under _main in BANK14

    None.

Critical Paths under _main in BANK15

    None.

Call Graph Tables:

 ---------------------------------------------------------------------------------
 (Depth) Function   	        Calls       Base Space   Used Autos Params    Refs
 ---------------------------------------------------------------------------------
 (0) _main                                                 2     2      0  259911
                                             42 COMRAM     2     2      0
             _application_initialize
                               _atoi
                 _dc_motor_move_left
                _dc_motor_move_right
                      _dc_motor_stop
                   _keypad_get_value
             _lcd_4bit_send_char_pos
              _lcd_4bit_send_command
           _lcd_4bit_send_string_pos
                       _led_turn_off
                        _led_turn_on
                            _loading
                             _memset
                             _strlen
 ---------------------------------------------------------------------------------
 (1) _strlen                                               4     2      2     166
                                              0 COMRAM     4     2      2
 ---------------------------------------------------------------------------------
 (1) _memset                                              12     6      6    1859
                                              0 COMRAM    12     6      6
 ---------------------------------------------------------------------------------
 (1) _loading                                              7     7      0   91590
                                             36 COMRAM     6     6      0
             _lcd_4bit_send_char_pos
              _lcd_4bit_send_command
           _lcd_4bit_send_string_pos
 ---------------------------------------------------------------------------------
 (2) _lcd_4bit_send_string_pos                             7     1      6   37859
                                             29 COMRAM     7     1      6
               _lcd_4bit_send_string
                _lcd_4bit_set_cursor
 ---------------------------------------------------------------------------------
 (3) _lcd_4bit_send_string                                 5     1      4   15439
                                             22 COMRAM     5     1      4
                 _lcd_4bit_send_char
 ---------------------------------------------------------------------------------
 (2) _lcd_4bit_send_char_pos                               6     1      5   35421
                                             29 COMRAM     6     1      5
                 _lcd_4bit_send_char
                _lcd_4bit_set_cursor
 ---------------------------------------------------------------------------------
 (3) _lcd_4bit_set_cursor                                  7     3      4   18896
                                             22 COMRAM     7     3      4
              _lcd_4bit_send_command
 ---------------------------------------------------------------------------------
 (4) _lcd_4bit_send_char                                   4     1      3   15151
                                             18 COMRAM     4     1      3
               _gpio_pin_write_logic
               _lcd_4bit_send_enable
                      _lcd_send_4bit
 ---------------------------------------------------------------------------------
 (1) _led_turn_on                                          5     3      2    4731
                                             10 COMRAM     5     3      2
               _gpio_pin_write_logic
 ---------------------------------------------------------------------------------
 (1) _led_turn_off                                         5     3      2    4731
                                             10 COMRAM     5     3      2
               _gpio_pin_write_logic
 ---------------------------------------------------------------------------------
 (1) _keypad_get_value                                    11     7      4    5656
                                             10 COMRAM    11     7      4
                _gpio_pin_read_logic
               _gpio_pin_write_logic
 ---------------------------------------------------------------------------------
 (2) _gpio_pin_read_logic                                 10     6      4     460
                                              0 COMRAM    10     6      4
 ---------------------------------------------------------------------------------
 (1) _dc_motor_stop                                        3     1      2    4679
                                             10 COMRAM     3     1      2
               _gpio_pin_write_logic
 ---------------------------------------------------------------------------------
 (1) _dc_motor_move_right                                  3     1      2    4603
                                             10 COMRAM     3     1      2
               _gpio_pin_write_logic
 ---------------------------------------------------------------------------------
 (1) _dc_motor_move_left                                   3     1      2    4603
                                             10 COMRAM     3     1      2
               _gpio_pin_write_logic
 ---------------------------------------------------------------------------------
 (1) _atoi                                                 9     7      2    1504
                                              6 COMRAM     9     7      2
                             ___wmul
                            _isdigit
                            _isspace
 ---------------------------------------------------------------------------------
 (2) _isspace                                              5     3      2     207
                                              0 COMRAM     5     3      2
 ---------------------------------------------------------------------------------
 (2) _isdigit                                              4     2      2     161
                                              0 COMRAM     4     2      2
 ---------------------------------------------------------------------------------
 (2) ___wmul                                               6     2      4     811
                                              0 COMRAM     6     2      4
 ---------------------------------------------------------------------------------
 (1) _application_initialize                               0     0      0   44318
                     _ecu_initialize
 ---------------------------------------------------------------------------------
 (2) _ecu_initialize                                       1     1      0   44318
                _dc_motor_initialize
                  _keypad_initialize
                _lcd_4bit_initialize
                     _led_initialize
 ---------------------------------------------------------------------------------
 (3) _led_initialize                                       5     3      2    6422
                                             14 COMRAM     5     3      2
                _gpio_pin_initialize
 ---------------------------------------------------------------------------------
 (3) _lcd_4bit_initialize                                  6     4      2   24775
                                             22 COMRAM     6     4      2
                _gpio_pin_initialize
              _lcd_4bit_send_command
 ---------------------------------------------------------------------------------
 (4) _lcd_4bit_send_command                                4     1      3   18191
                                             18 COMRAM     4     1      3
               _gpio_pin_write_logic
               _lcd_4bit_send_enable
                      _lcd_send_4bit
 ---------------------------------------------------------------------------------
 (5) _lcd_send_4bit                                        8     5      3    5224
                                             10 COMRAM     8     5      3
               _gpio_pin_write_logic
 ---------------------------------------------------------------------------------
 (5) _lcd_4bit_send_enable                                 3     1      2    4831
                                             10 COMRAM     3     1      2
               _gpio_pin_write_logic
 ---------------------------------------------------------------------------------
 (3) _keypad_initialize                                    7     5      2    6829
                                             14 COMRAM     7     5      2
      _gpio_pin_direction_initialize
                _gpio_pin_initialize
 ---------------------------------------------------------------------------------
 (3) _dc_motor_initialize                                  3     1      2    6286
                                             14 COMRAM     3     1      2
                _gpio_pin_initialize
 ---------------------------------------------------------------------------------
 (4) _gpio_pin_initialize                                  4     2      2    6118
                                             10 COMRAM     4     2      2
      _gpio_pin_direction_initialize
               _gpio_pin_write_logic
 ---------------------------------------------------------------------------------
 (6) _gpio_pin_write_logic                                10     7      3    4435
                                              0 COMRAM    10     7      3
 ---------------------------------------------------------------------------------
 (5) _gpio_pin_direction_initialize                        9     7      2     407
                                              0 COMRAM     9     7      2
 ---------------------------------------------------------------------------------
 Estimated maximum stack depth 6
 ---------------------------------------------------------------------------------

 Call Graph Graphs:

 _main (ROOT)
   _application_initialize
     _ecu_initialize
       _dc_motor_initialize
         _gpio_pin_initialize
           _gpio_pin_direction_initialize
           _gpio_pin_write_logic
       _keypad_initialize
         _gpio_pin_direction_initialize
         _gpio_pin_initialize
       _lcd_4bit_initialize
         _gpio_pin_initialize
         _lcd_4bit_send_command
           _gpio_pin_write_logic
           _lcd_4bit_send_enable
             _gpio_pin_write_logic
           _lcd_send_4bit
             _gpio_pin_write_logic
       _led_initialize
         _gpio_pin_initialize
   _atoi
     ___wmul
     _isdigit
     _isspace
   _dc_motor_move_left
     _gpio_pin_write_logic
   _dc_motor_move_right
     _gpio_pin_write_logic
   _dc_motor_stop
     _gpio_pin_write_logic
   _keypad_get_value
     _gpio_pin_read_logic
     _gpio_pin_write_logic
   _lcd_4bit_send_char_pos
     _lcd_4bit_send_char
       _gpio_pin_write_logic
       _lcd_4bit_send_enable
       _lcd_send_4bit
     _lcd_4bit_set_cursor
       _lcd_4bit_send_command
   _lcd_4bit_send_command
   _lcd_4bit_send_string_pos
     _lcd_4bit_send_string
       _lcd_4bit_send_char
     _lcd_4bit_set_cursor
   _led_turn_off
     _gpio_pin_write_logic
   _led_turn_on
     _gpio_pin_write_logic
   _loading
     _lcd_4bit_send_char_pos
     _lcd_4bit_send_command
     _lcd_4bit_send_string_pos
   _memset
   _strlen

 Address spaces:
Name               Size   Autos  Total    Cost      Usage
BIGRAM             F7F      0       0      40        0.0%
EEDATA             400      0       0       0        0.0%
BITBANK14          100      0       0      32        0.0%
BANK14             100      0       0      33        0.0%
BITBANK13          100      0       0      30        0.0%
BANK13             100      0       0      31        0.0%
BITBANK12          100      0       0      28        0.0%
BANK12             100      0       0      29        0.0%
BITBANK11          100      0       0      26        0.0%
BANK11             100      0       0      27        0.0%
BITBANK10          100      0       0      24        0.0%
BANK10             100      0       0      25        0.0%
BITBANK9           100      0       0      22        0.0%
BANK9              100      0       0      23        0.0%
BITBANK8           100      0       0      20        0.0%
BANK8              100      0       0      21        0.0%
BITBANK7           100      0       0      18        0.0%
BANK7              100      0       0      19        0.0%
BITBANK6           100      0       0      16        0.0%
BANK6              100      0       0      17        0.0%
BITBANK5           100      0       0      14        0.0%
BANK5              100      0       0      15        0.0%
BITBANK4           100      0       0      12        0.0%
BANK4              100      0       0      13        0.0%
BITBANK3           100      0       0      10        0.0%
BANK3              100      0       0      11        0.0%
BITBANK2           100      0       0       8        0.0%
BANK2              100      0       0       9        0.0%
BITBANK1           100      0       0       6        0.0%
BANK1              100      0       0       7        0.0%
BITBANK15           80      0       0      34        0.0%
BANK15              80      0       0      35        0.0%
BITBANK0            80      0       0       4        0.0%
BANK0               80      0       0       5        0.0%
BITCOMRAM           7F      0       0       0        0.0%
COMRAM              7F     2C      77       1       93.7%
BITBIGSFRh          69      0       0      36        0.0%
BITBIGSFRlh          4      0       0      37        0.0%
BITBIGSFRll          4      0       0      38        0.0%
BIGSFR               0      0       0     200        0.0%
BITSFR               0      0       0     200        0.0%
SFR                  0      0       0     200        0.0%
STACK                0      0       0       2        0.0%
NULL                 0      0       0       0        0.0%
ABS                  0      0      77      39        0.0%
DATA                 0      0      77       3        0.0%
CODE                 0      0       0       0        0.0%


Microchip Technology PIC18 Macro Assembler V2.41 build 20230208172133 
Symbol Table                                                                                   Thu Aug 17 14:26:22 2023

                       ?_lcd_send_4bit 003C                                      _i 0062  
                                    _l 0060                                     l31 19F6  
                                   l41 20F4                                     l36 216A  
                                   l46 23AA                                     l63 2316  
                                   l56 2250                    ___wmul@multiplicand 0034  
                                  l200 23F0                                    l142 21E0  
                                  l302 1F86                                    l147 2364  
                                  l420 18C4                                    l261 207E  
                                  l190 2436                                    l176 1DC6  
                                  l185 253E                                    l434 1E7E  
                                  l195 247C                                    l275 1C30  
                                  l291 1E9E                                    l460 22BC  
                                  l284 1FA6                                    l372 2500  
                                  l446 1B22                                    l295 1F02  
                                  l288 2006                                    l561 13C6  
                                  l298 1F22                                    l580 1D04  
                                  l573 2634                                    l583 262E  
                 keypad_initialize@ret 0044                                    _kp1 0021  
                                  _ret 0077                    led_initialize@F3050 0066  
                                  prod 0FF3                                    wreg 0FE8  
                relay_initialize@F3046 006A                           ?_led_turn_on 003C  
                 _lcd_4bit_send_enable 2318                                   l3100 1B60  
                                 l1316 25AA                                   l3030 14F2  
                                 l3120 1BA2                                   l3112 1B68  
                                 l3200 1C6E                                   l3040 159A  
                                 l3024 14C8                                   l1282 2608  
                                 l1290 24C2                                   l3130 1BDC  
                                 l3114 1B7C                                   l3106 1B64  
                                 l3210 1CD4                                   l3202 1C86  
                                 l3050 1620                                   l3042 15C6  
                                 l3034 1528                                   l1276 1778  
                                 l3060 2404                                   l3132 1C0A  
                                 l3116 1B7E                                   l3140 1C2E  
                                 l3212 1CE4                                   l3204 1C9E  
                                 l3052 1626                                   l3036 1580  
                                 l3028 14E6                                   l3220 2586  
                                 l3070 2438                                   l3062 240C  
                                 l3134 1C0C                                   l3126 1BA6  
                                 l3118 1B8E                                   l3150 1EA2  
                                 l3214 1CE8                                   l3206 1CA2  
                                 l3054 162A                                   l3046 15E0  
                                 l3222 259E                                   l1279 1780  
                                 l2600 216C                                   l3240 16B2  
                                 l3232 1656                                   l3072 244A  
                                 l3064 2434                                   l3056 23F2  
                                 l3080 23AC                                   l3136 1C1C  
                                 l3128 1BCC                                   l3152 1EDC  
                                 l3144 1E80                                   l3208 1CBE  
                                 l3048 1614                                   l3216 2576  
                                 l1297 163C                                   l2610 218E  
                                 l2602 217E                                   l3250 174A  
                                 l3242 16E4                                   l3234 1670  
                                 l3226 163E                                   l3074 2452  
                                 l3058 23F2                                   l3082 23AC  
                                 l3138 1C1E                                   l3170 1F60  
                                 l3162 1F04                                   l3154 1EDE  
                                 l3146 1E84                                   l3218 2582  
                                 l2620 2318                                   l2612 21BE  
                                 l2604 2186                                   l2700 18D8  
                                 l3180 2630                                   l3252 175C  
                                 l3236 16A2                                   l3228 1652  
                                 l3076 247A                                   l3068 2438  
                                 l3084 23BE                                   l3092 1B24  
                                 l3172 1F62                                   l3164 1F08  
                                 l3156 1EF0                                   l3148 1E96  
                                 l2630 2362                                   l2622 2318  
                                 l2614 21C2                                   l2710 190C  
                                 l2702 18E0                                   l3238 16AA  
                                 l3086 23C6                                   l3094 1B34  
                                 l3174 1F74                                   l3166 1F1A  
                                 l3158 1F00                                   l3182 1C32  
                                 l2640 17BA                                   l2800 2008  
                                 l2624 232A                                   l2616 21DE  
                                 l2720 195C                                   l2712 191C  
                                 l2704 1904                                   l3248 171C  
                                 l3088 23EE                                   l3096 1B46  
                                 l3168 1F26                                   l3176 1F84  
                                 l3192 1C4A                                   l3184 1C32  
                                 l3600 1220                                   l2642 17C2  
                                 l2650 18C2                                   l2634 1782  
                                 l2810 2026                                   l2802 201A  
                                 l2626 2332                                   l2730 19B2  
                                 l2722 197C                                   l2714 1920  
                                 l3098 1B58                                   l3194 1C66  
                                 l3186 1C42                                   l3602 122E  
                                 l3610 1260                                   l2644 1824  
                                 l2636 1786                                   l2580 1A30  
                                 l2660 2252                                   l2812 2036  
                                 l2804 2022                                   l2628 2346  
                                 l2732 19C2                                   l2724 1982  
                                 l2716 193C                                   l3620 12AE  
                                 l3612 1272                                   l3604 123C  
                                 l2638 1798                                   l2582 1A38  
                                 l2590 1B20                                   l2574 19F8  
                                 l2662 2264                                   l2822 204C  
                                 l2814 2038                                   l2734 19D2  
                                 l2726 1992                                   l2718 194C  
                                 l3710 16CE                                   l2750 1D2A  
                                 l2742 1D06                                   l3630 12E6  
                                 l3614 1284                                   l3606 124A  
                                 l2648 1880                                   l3712 1B0A  
                                 l2584 1A9A                                   l2576 19FC  
                                 l2664 2286                                   l2824 206A  
                                 l2816 2048                                   l2680 2168  
                                 l2672 20F6                                   l2736 19E2  
                                 l2728 19A2                                   l2840 1FE4  
                                 l2832 1F88                                   l2920 1DCC  
                                 l2752 1D42                                   l2760 1DC4  
                                 l2744 1D0A                                   l3640 135A  
                                 l3632 12EA                                   l3616 1292  
                                 l3608 124E                                   l3560 107A  
                                 l3714 18AC                                   l2578 1A0E  
                                 l2666 228E                                   l2658 2252  
                                 l2826 206C                                   l2674 20F6  
                                 l2738 19F4                                   l2842 1FE6  
                                 l2834 1F8C                                   l2930 1E7C  
                                 l2922 1DDE                                   l2690 209A  
                                 l2754 1D5A                                   l2746 1D1C  
                                 l2850 2366                                   l2770 21E6  
                                 l3650 1384                                   l3642 1362  
                                 l3618 12A0                                   l3626 12C0  
                                 l3634 130C                                   l3570 10DC  
                                 l3562 107E                                   l2588 1AF6  
                                 l2668 22BA                                   l2828 207C  
                                 l2676 2108                                   l2844 1FF8  
                                 l2836 1F9E                                   l2940 24DC  
                                 l2924 1E00                                   l2692 20F2  
                                 l2684 2080                                   l3708 1D9E  
                                 l2756 1D72                                   l2748 1D24  
                                 l2852 2366                                   l2780 2232  
                                 l2772 21F8                                   l3660 1402  
                                 l3652 13A4                                   l3644 1366  
                                 l3636 131E                                   l3628 12D2  
                                 l3580 114E                                   l3572 10F4  
                                 l3564 109C                                   l2790 2514  
                                 l2598 216C                                   l2678 2110  
                                 l2838 1FAA                                   l2846 2004  
                                 l2942 24E8                                   l2934 24C4  
                                 l2926 1E12                                   l2918 1DC8  
                                 l2686 2080                                   l2758 1D8A  
                                 l2854 2378                                   l2782 224E  
                                 l2774 220A                                   l2870 22EA  
                                 l2862 22BE                                   l3670 1468  
                                 l3662 141E                                   l3646 136A  
                                 l3638 133C                                   l3590 11BE  
                                 l3582 1160                                   l3574 1108  
                                 l3654 13CA                                   l3566 10B2  
                                 l2792 251C                                   l2696 18C6  
                                 l2944 24F4                                   l2936 24C4  
                                 l2960 24BC                                   l2952 247E  
                                 l2928 1E1A                                   l2688 2092  
                                 l2856 2380                                   l2776 2212  
                                 l2768 21E2                                   l2872 22FE  
                                 l2864 22BE                                   l3672 1470  
                                 l3656 13EA                                   l3664 1426  
                                 l3648 136E                                   l3592 11D4  
                                 l3576 111A                                   l3584 1164  
                                 l3568 10CA                                   l2794 253C  
                                 l2786 2502                                   l2698 18C6  
                                 l2938 24D0                                   l2946 260A  
                                 l2954 2482                                   l2858 23A8  
                                 l2778 222E                                   l2874 2314  
                                 l2866 22D0                                   l3690 14BE  
                                 l3674 1474                                   l3666 1438  
                                 l3682 1480                                   l3658 13FE  
                                 l3594 11EE                                   l3586 1182  
                                 l3578 1138                                   l2788 2502  
                                 l2948 2626                                   l2964 25DE  
                                 l2956 2496                                   l2868 22E2  
                                 l3684 1490                                   l3676 1478  
                                 l3668 144A                                   l3596 1200  
                                 l3588 11A0                                   l2798 2008  
                                 l2958 24B8                                   l3686 14A0  
                                 l3598 1212                                   l3688 14BA  
                                 STR_1 1075                                   STR_4 101E  
                                 STR_5 1066                                   STR_6 1040  
                                 STR_7 102F                                   STR_8 106E  
                                 STR_9 101E                                   u2000 1B58  
                                 u2001 1B54                                   u2010 1B8E  
                                 u2011 1B8A                                   u2020 1BDC  
                                 u2100 1D04                                   u2021 1BD8  
                                 u2101 1D00                                   u2030 1C1C  
                                 u2110 259E                                   u2031 1C18  
                                 u2111 259A                                   u1400 1A30  
                                 u2120 1670                                   u2040 1C2E  
                                 u1401 1A2C                                   u2121 166C  
                                 u2041 1C2A                                   u2130 169E  
                                 u2050 1E96                                   u2131 169A  
                                 u2051 1E92                                   u2140 174A  
                                 u2141 1746                                   _LATA 0F89  
                                 u1510 1898                                   u1414 1A58  
                                 u1430 217E                                   u2150 175C  
                                 u2070 1F1A                                   _LATB 0F8A  
                                 u1511 1892                                   u1415 1A54  
                                 u1431 217A                                   u2151 1758  
                                 u2071 1F16                                   _LATC 0F8B  
                                 u1520 189A                                   u1504 1844  
                                 u1424 1ABA                                   u1600 21F8  
                                 _LATD 0F8C                                   u1505 1840  
                                 u1425 1AB6                                   u2065 1EEE  
                                 u1601 21F4                                   _LATE 0F8D  
                                 u1530 2264                                   u1450 21DE  
                                 u1610 220A                                   u2090 1CBE  
                                 u1531 2260                                   u1451 21DA  
                                 u2067 1EF0                                   u1611 2206  
                                 u2091 1CBA                                   u1540 2286  
                                 u1460 232A                                   u1444 21AC  
                                 u1620 224E                                   u1700 22D0  
                                 u2500 10F4                                   u1541 2282  
                                 u1461 2326                                   u1445 21A8  
                                 u2085 1F72                                   u1621 224A  
                                 u1701 22CC                                   u2501 10F0  
                                 u1470 1798                                   u1390 1A0E  
                                 u1630 2514                                   u1550 2108  
                                 u1710 22E2                                   u2510 1108  
                                 u1471 1794                                   u1391 1A0A  
                                 u1631 2510                                   u1551 2104  
                                 u2087 1F74                                   u1711 22DE  
                                 u2511 1104                                   u1480 17BA  
                                 u1640 201A                                   u1800 2496  
                                 u1560 2092                                   u2520 1200  
                                 u1481 17B6                                   u1641 2016  
                                 u1801 2492                                   u1561 208E  
                                 u2521 11FC                                   u1650 2048  
                                 u1570 18D8                                   u1810 24B8  
                                 u2530 1272                                   u1651 2044  
                                 u1571 18D4                                   u1811 24B4  
                                 u2531 126E                                   u1660 207C  
                                 u1580 193C                                   u1820 2602  
                                 u2540 12D2                                   u1661 2078  
                                 u1581 1938                                   u1821 25FC  
                                 u2541 12CE                                   u1494 17E2  
                                 u1670 1F9E                                   u1830 2604  
                                 u1590 1D1C                                   u1910 14E2  
                                 u2550 13EA                                   u1495 17DE  
                                 u1671 1F9A                                   u1591 1D18  
                                 u1911 14DE                                   u2551 13E6  
                                 u2607 1218                                   u1760 1DDE  
                                 u1920 1524                                   u2560 1438  
                                 u1761 1DDA                                   u1921 1520  
                                 u2561 1434                                   u2617 128A  
                                 u1770 1E00                                   u1690 2378  
                                 u1930 1596                                   u2570 1490  
                                 u2490 10DC                                   u1771 1DFC  
                                 u1691 2374                                   u1931 1592  
                                 u2571 148C                                   u2627 1378  
                                 u2491 10D8                                   u1780 1E12  
                                 u1940 15DC                                   u1685 1FF6  
                                 u1781 1E0E                                   u1941 15D8  
                                 u2637 139C                                   u1950 163C  
                                 u1687 1FF8                                   u2647 1C90  
                                 u1951 1638                                   u1960 2404  
                                 u1961 2400                                   u2657 1CC8  
                                 u1970 244A                                   u1794 1E68  
                                 u2667 1942                                   u1971 2446  
                                 u1795 1E64                                   u2587 10BC  
                                 u1980 23BE                                   u2677 1962  
                                 u1981 23BA                                   u2597 1142  
                                 u1990 1B46                                   u2687 197E  
                                 u1991 1B42                   _lcd_4bit_send_string 21E2  
                                 _atoi 163E                                   _main 107A  
                                 fsr2h 0FDA                                   indf2 0FDF  
                                 fsr1l 0FE1                                   fsr2l 0FD9  
               __end_of_led_initialize 2008                                   prodh 0FF4  
                                 prodl 0FF3                                   start 0000  
                        ?_led_turn_off 003C                           ___param_bank 0000  
                _lcd_4bit_send_command 20F6                 dc_motor_initialize@ret 0042  
                 _gpio_pin_write_logic 19F8         lcd_4bit_send_string_pos@column 0052  
               keypad_get_value@keypad 003C                                  ?_atoi 0038  
       lcd_4bit_send_string_pos@string 0053                                  ?_main 0032  
             ??_application_initialize 004E                                  STR_10 100D  
                                STR_11 105C                                  STR_12 101E  
                                STR_13 101E                                  STR_14 1050  
                  relay_turn_off@F3056 0068                 keypad_initialize@i_479 0046  
                                _PORTA 0F80                                  _PORTB 0F81  
                                _PORTC 0F82                                  _PORTD 0F83  
                                _PORTE 0F84                                  _TRISA 0F92  
                                _TRISB 0F93                                  _TRISC 0F94  
                                _TRISD 0F95                                  _TRISE 0F96  
            lcd_4bit_set_cursor@column 004B                  ?_lcd_4bit_send_enable 003C  
             __end_of_keypad_get_value 1C32                                  _lcd_1 0028  
                                _led_1 0031                                  _led_2 0030  
                      __end_of_loading 1D06                        __end_of_isdigit 260A  
                                _value 0076                                  atoi@n 003F  
                                atoi@s 0038                  ?_lcd_4bit_send_string 0048  
                      __end_of_isspace 24C4                                  tablat 0FF5  
              lcd_4bit_send_enable@ret 003E                                  status 0FD8  
                      ?_led_initialize 0040           lcd_4bit_send_char_pos@column 0052  
                       ??_led_turn_off 003E         ?_gpio_pin_direction_initialize 0032  
                      ??_lcd_send_4bit 003F                 _lcd_4bit_send_char_pos 2366  
                      __initialization 2540                    keypad_get_value@log 0043  
                  keypad_get_value@ret 0042                           __end_of_atoi 1782  
                         __end_of_main 14C8                  ?_gpio_pin_write_logic 0032  
                        _lat_registers 0001        lcd_4bit_send_string_pos@lcd_obj 004F  
          __end_of_dc_motor_initialize 2540                keypad_get_value@counter 0044  
                               ??_atoi 003A                                 ??_main 005C  
                        __activetblptr 0002                       led_turn_on@F3055 0065  
     __end_of_lcd_4bit_send_string_pos 2318            __end_of_dc_motor_move_right 2438  
               ?_lcd_4bit_send_command 0044                keypad_initialize@keypad 0040  
          keypad_get_value@row_counter 0045                                 ___wmul 260A  
                               _memset 14C8                                 clear_0 2566  
                led_initialize@pin_obj 0044                                 isa$std 0001  
                     lcd_send_4bit@ret 0041                                 _strlen 2576  
                         __pdataCOMRAM 0001                              ??_loading 0056  
               ??_lcd_4bit_send_enable 003E                              ??_isdigit 0034  
                         __mediumconst 0000                              ??_isspace 0034  
                               tblptrh 0FF7                                 tblptrl 0FF6  
                               tblptru 0FF8                 ??_lcd_4bit_send_string 004C  
           lcd_4bit_send_string@string 004A                       _entered_password 005E  
                           __accesstop 0080                __end_of__initialization 256C  
                        ___rparam_used 0001                      led_initialize@led 0040  
                    led_initialize@ret 0043                 ??_gpio_pin_write_logic 0035  
                       __pcstackCOMRAM 0032                  lcd_4bit_send_char@chr 0046  
                lcd_4bit_send_char@ret 0047               lcd_4bit_send_command@ret 0047  
                 __end_of_led_turn_off 1F88                         lcd_send_4bit@i 0042  
              lcd_4bit_send_string@ret 004C                 _application_initialize 2630  
                           __pnvCOMRAM 0077                                ?___wmul 0032  
                    led_turn_off@F3060 0064                        led_toggle@F3065 0063  
                              ?_memset 0032                                ?_strlen 0032  
            ?_lcd_4bit_send_string_pos 004F                      ?_keypad_get_value 003C  
                     ??_led_initialize 0042                     ??_keypad_get_value 0040  
                           _btn_values 1001                         _tris_registers 0015  
              ?_lcd_4bit_send_char_pos 004F                                __Hparam 0000  
                              __Lparam 0000                  dc_motor_move_left@ret 003E  
                  _gpio_pin_initialize 2252                    _gpio_pin_read_logic 1DC8  
                         __psmallconst 1000                                __pcinit 2540  
                              __ramtop 1000                                __ptext0 107A  
                              __ptext1 2576                                __ptext2 14C8  
                              __ptext3 1C32                                __ptext4 22BE  
                              __ptext5 21E2                                __ptext6 2366  
                              __ptext7 1D06                                __ptext8 2080  
                              __ptext9 1E80        ??_gpio_pin_direction_initialize 0034  
                              _loading 1C32                                _isdigit 25DE  
                              _isspace 247E                                _motor_1 002E  
                              atoi@neg 003D                   ?_gpio_pin_initialize 003C  
                 ?_gpio_pin_read_logic 0032            lcd_4bit_send_enable@lcd_obj 003C  
                 end_of_initialization 256C         __end_of_lcd_4bit_send_char_pos 23AC  
                              memset@c 0034                                memset@k 003A  
                              memset@n 0036                                memset@s 003C  
                        __Lmediumconst 0000                ??_lcd_4bit_send_command 0047  
          lcd_4bit_send_string@lcd_obj 0048                    led_turn_off@pin_obj 0040  
           __end_of_lcd_4bit_send_char 20F6                          _dc_motor_stop 23AC  
                __end_of_lcd_send_4bit 21E2                                postdec1 0FE5  
                              postdec2 0FDD                                postinc0 0FEE  
                              postinc2 0FDE                                strlen@a 0034  
                              strlen@s 0032                    _lcd_4bit_initialize 18C6  
                 lcd_send_4bit@lcd_obj 003C            dc_motor_move_right@dc_motor 003C  
                       _ecu_initialize 24C4                   lcd_4bit_initialize@i 004B  
                ??_gpio_pin_initialize 003E                  ??_gpio_pin_read_logic 0036  
                 ?_lcd_4bit_initialize 0048                         ?_dc_motor_stop 003C  
                         _led_turn_off 1F04                    _lcd_4bit_set_cursor 1D06  
                   relay_turn_on@F3051 0069                      relay_toggle@F3061 0067  
          lcd_4bit_send_string_pos@ret 0055            lcd_4bit_send_string_pos@row 0051  
                keypad_get_value@value 003E                         __end_of___wmul 2630  
               __end_of_ecu_initialize 2502                          __pidataCOMRAM 25AC  
                       __end_of_memset 163E                         __end_of_strlen 25AC  
                  start_initialization 2540                          ??_led_turn_on 003E  
                 ?_lcd_4bit_set_cursor 0048  __end_of_gpio_pin_direction_initialize 18C6  
        _gpio_pin_direction_initialize 1782                ?_application_initialize 0032  
                ??_lcd_4bit_initialize 004A                        led_turn_off@led 003C  
                      led_turn_off@ret 003F             __end_of_dc_motor_move_left 247E  
                             ??___wmul 0036                               ??_memset 0038  
                      ?_ecu_initialize 0032                             memset@dest 0032  
         lcd_4bit_send_command@lcd_obj 0044           lcd_4bit_send_command@command 0046  
                     dc_motor_stop@ret 003E                               ??_strlen 0034  
                          __pbssCOMRAM 005E                  ??_lcd_4bit_set_cursor 004C  
       __end_of_application_initialize 2636                       _number_of_digits 0061  
           dc_motor_move_left@dc_motor 003C                    __end_of_led_turn_on 1F04  
                      ??_dc_motor_stop 003E                            __smallconst 1000  
                             ?_loading 0032                               ?_isdigit 0032  
                             ?_isspace 0032         keypad_get_value@coulmn_counter 0046  
           lcd_4bit_initialize@lcd_obj 0048                         ___wmul@product 0036  
        __end_of_lcd_4bit_send_command 216C                     led_turn_on@pin_obj 0040  
                  _dc_motor_initialize 2502       gpio_pin_direction_initialize@pin 0032  
     gpio_pin_direction_initialize@ret 003A               _lcd_4bit_send_string_pos 22BE  
                    ___wmul@multiplier 0032                     keypad_initialize@i 0045  
                   _lcd_4bit_send_char 2080                 gpio_pin_initialize@pin 003C  
               gpio_pin_initialize@ret 003F                            _led_turn_on 1E80  
                         _isspace$1383 0036                   ?_dc_motor_initialize 0040  
              gpio_pin_write_logic@log 0034                gpio_pin_write_logic@pin 0032  
              gpio_pin_write_logic@ret 003B                    ?_lcd_4bit_send_char 0044  
                            copy_data0 2554                      _keypad_initialize 2008  
           lcd_4bit_set_cursor@lcd_obj 0048                    _dc_motor_move_right 23F2  
                   ?_keypad_initialize 0040                 gpio_pin_read_logic@log 0034  
               gpio_pin_read_logic@pin 0032                 gpio_pin_read_logic@ret 003B  
                       led_turn_on@led 003C                         led_turn_on@ret 003F  
                             __Hrparam 0000                               __Lrparam 0000  
                  ??_keypad_initialize 0042                  dc_motor_stop@dc_motor 003C  
                 ??_lcd_4bit_send_char 0047                 lcd_4bit_set_cursor@ret 004E  
               lcd_4bit_set_cursor@row 004A                   ?_dc_motor_move_right 003C  
          __end_of_gpio_pin_initialize 22BE                     __end_of_btn_values 100D  
          __end_of_gpio_pin_read_logic 1E80                  ??_dc_motor_initialize 0042  
        lcd_4bit_send_char_pos@lcd_obj 004F              __end_of_keypad_initialize 2080  
                             __ptext10 1F04                               __ptext11 1B24  
                             __ptext20 2630                               __ptext12 1DC8  
                             __ptext21 24C4                               __ptext13 23AC  
                             __ptext30 19F8                               __ptext22 1F88  
                             __ptext14 23F2                               __ptext31 1782  
                             __ptext23 18C6                               __ptext15 2438  
                             __ptext24 20F6                               __ptext16 163E  
                             __ptext25 216C                               __ptext17 247E  
                             __ptext26 2318                               __ptext18 25DE  
                             __ptext27 2008                               __ptext19 260A  
                             __ptext28 2502                               __ptext29 2252  
               dc_motor_move_right@ret 003E                               _password 001F  
         __end_of_lcd_4bit_send_enable 2366              lcd_send_4bit@data_command 003E  
                     _keypad_get_value 1B24                       ??_ecu_initialize 004E  
                             isa$xinst 0000           __end_of_lcd_4bit_send_string 2252  
          dc_motor_initialize@dc_motor 0040                  ??_dc_motor_move_right 003E  
                   _dc_motor_move_left 2438              lcd_4bit_send_char@lcd_obj 0044  
          __end_of_lcd_4bit_initialize 19F8               ??_lcd_4bit_send_char_pos 0054  
                             loading@i 005A                               loading@j 0058  
                             isdigit@c 0032           __end_of_gpio_pin_write_logic 1B24  
                  ?_dc_motor_move_left 003C                               isspace@c 0032  
                 ??_dc_motor_move_left 003E                          _lcd_send_4bit 216C  
          __end_of_lcd_4bit_set_cursor 1DC8                         _port_registers 000B  
            lcd_4bit_send_char_pos@chr 0053              lcd_4bit_send_char_pos@ret 0054  
            lcd_4bit_send_char_pos@row 0051                   _entered_password_arr 006B  
                __end_of_dc_motor_stop 23F2             ??_lcd_4bit_send_string_pos 0055  
                       _led_initialize 1F88                 lcd_4bit_initialize@ret 004D  
